; generated by Component: ARM Compiler 5.06 update 6 (build 750) Tool: ArmCC [4d3637]
; commandline ArmCC [--list --split_sections --debug -c --asm --interleave -o.\obj\main.o --asm_dir=.\lst\ --list_dir=.\lst\ --depend=.\obj\main.d --cpu=Cortex-M0 --apcs=interwork --diag_suppress=9931 -I..\..\..\Library\CMSIS\Include -I..\..\..\Library\Device\Nuvoton\M031\Include -I..\..\..\Library\StdDriver\inc -IC:\Keil_v5\ARM\RV31\INC -IC:\Keil_v5\ARM\CMSIS\Include -D__MICROLIB -D__UVISION_VERSION=526 --omf_browse=.\obj\main.crf ..\main.c]
                          THUMB

                          AREA ||i.GPIO_Init||, CODE, READONLY, ALIGN=2

                  GPIO_Init PROC
;;;1751   
;;;1752   void GPIO_Init (void)
000000  b510              PUSH     {r4,lr}
;;;1753   {
;;;1754       GPIO_SetMode(PB, BIT14, GPIO_MODE_OUTPUT);
000002  2201              MOVS     r2,#1
000004  0391              LSLS     r1,r2,#14
000006  4802              LDR      r0,|L1.16|
000008  f7fffffe          BL       GPIO_SetMode
;;;1755   }
00000c  bd10              POP      {r4,pc}
;;;1756   
                          ENDP

00000e  0000              DCW      0x0000
                  |L1.16|
                          DCD      0x40004040

                          AREA ||i.PDMA_IRQHandler||, CODE, READONLY, ALIGN=2

                  PDMA_IRQHandler PROC
;;;912    
;;;913    void PDMA_IRQHandler(void)
000000  b510              PUSH     {r4,lr}
;;;914    {
;;;915        uint32_t status = PDMA_GET_INT_STATUS(PDMA);
000002  4c10              LDR      r4,|L2.68|
000004  69e0              LDR      r0,[r4,#0x1c]
;;;916    
;;;917        if (status & PDMA_INTSTS_ABTIF_Msk)   /* abort */
000006  07c1              LSLS     r1,r0,#31
000008  d005              BEQ      |L2.22|
;;;918        {
;;;919            printf("target abort interrupt !!\n");
00000a  a00f              ADR      r0,|L2.72|
00000c  f7fffffe          BL       __2printf
;;;920            PDMA_CLR_ABORT_FLAG(PDMA, PDMA_GET_ABORT_STS(PDMA));
000010  6a20              LDR      r0,[r4,#0x20]
000012  6220              STR      r0,[r4,#0x20]
                  |L2.20|
;;;921        }
;;;922        else if (status & PDMA_INTSTS_TDIF_Msk)     /* done */
;;;923        {
;;;924    		if((PDMA_GET_TD_STS(PDMA) & SPI_MASTER_OPENED_CH) == SPI_MASTER_OPENED_CH)			
;;;925            {
;;;926    //            PDMA_CLR_TD_FLAG(PDMA, PDMA_GET_TD_STS(PDMA));
;;;927    			PDMA_CLR_TD_FLAG(PDMA, SPI_MASTER_OPENED_CH);
;;;928    
;;;929    			SPI_DISABLE_TX_PDMA(SPI0);
;;;930    //			printf("target done interrupt !!\n");
;;;931    //			PB14 ^= 1;	//debug			
;;;932            }
;;;933        }
;;;934        else if (status & (PDMA_INTSTS_REQTOF0_Msk))     /* channel timeout */
;;;935        {
;;;936            printf("timeout interrupt !!\n");
;;;937            PDMA_CLR_TMOUT_FLAG(PDMA, SPI_MASTER_TX_DMA_CH);
;;;938        }
;;;939        else
;;;940        {
;;;941    //        printf("unknown interrupt !!\n");
;;;942        }
;;;943    }
000014  bd10              POP      {r4,pc}
                  |L2.22|
000016  0781              LSLS     r1,r0,#30             ;922
000018  d50a              BPL      |L2.48|
00001a  6a60              LDR      r0,[r4,#0x24]         ;924
00001c  07c0              LSLS     r0,r0,#31             ;924
00001e  d0f9              BEQ      |L2.20|
000020  2001              MOVS     r0,#1                 ;927
000022  6260              STR      r0,[r4,#0x24]         ;927
000024  480f              LDR      r0,|L2.100|
000026  68c1              LDR      r1,[r0,#0xc]          ;929
000028  0849              LSRS     r1,r1,#1              ;929
00002a  0049              LSLS     r1,r1,#1              ;929
00002c  60c1              STR      r1,[r0,#0xc]          ;929
                  |L2.46|
00002e  bd10              POP      {r4,pc}
                  |L2.48|
000030  05c0              LSLS     r0,r0,#23             ;934
000032  d5fc              BPL      |L2.46|
000034  a00c              ADR      r0,|L2.104|
000036  f7fffffe          BL       __2printf
00003a  20ff              MOVS     r0,#0xff              ;937
00003c  3001              ADDS     r0,#1                 ;937
00003e  61e0              STR      r0,[r4,#0x1c]         ;937
000040  bd10              POP      {r4,pc}
;;;944    
                          ENDP

000042  0000              DCW      0x0000
                  |L2.68|
                          DCD      0x40008400
                  |L2.72|
000048  74617267          DCB      "target abort interrupt !!\n",0
00004c  65742061
000050  626f7274
000054  20696e74
000058  65727275
00005c  70742021
000060  210a00  
000063  00                DCB      0
                  |L2.100|
                          DCD      0x40061000
                  |L2.104|
000068  74696d65          DCB      "timeout interrupt !!\n",0
00006c  6f757420
000070  696e7465
000074  72727570
000078  74202121
00007c  0a00    
00007e  00                DCB      0
00007f  00                DCB      0

                          AREA ||i.SPI_PDMA_Init||, CODE, READONLY, ALIGN=2

                  SPI_PDMA_Init PROC
;;;891    
;;;892    void SPI_PDMA_Init(void)
000000  b51c              PUSH     {r2-r4,lr}
;;;893    {
;;;894        /* Open PDMA Channel */
;;;895        PDMA_Open(PDMA, SPI_MASTER_OPENED_CH);
000002  4c1c              LDR      r4,|L3.116|
000004  2101              MOVS     r1,#1
000006  4620              MOV      r0,r4
000008  f7fffffe          BL       PDMA_Open
;;;896    
;;;897    	//TX
;;;898        PDMA_SetTransferCnt(PDMA,SPI_MASTER_TX_DMA_CH, PDMA_WIDTH_8, LED_DATA_LEN*8);
00000c  23ff              MOVS     r3,#0xff
00000e  2200              MOVS     r2,#0
000010  33b1              ADDS     r3,r3,#0xb1
000012  4611              MOV      r1,r2
000014  4620              MOV      r0,r4
000016  f7fffffe          BL       PDMA_SetTransferCnt
;;;899        /* Set source/destination address and attributes */
;;;900        PDMA_SetTransferAddr(PDMA,SPI_MASTER_TX_DMA_CH, (uint32_t)SpiBuffer, PDMA_SAR_INC, (uint32_t)&SPI0->TX, PDMA_DAR_FIX);
00001a  2103              MOVS     r1,#3
00001c  0289              LSLS     r1,r1,#10
00001e  4816              LDR      r0,|L3.120|
000020  2300              MOVS     r3,#0
000022  9101              STR      r1,[sp,#4]
000024  9000              STR      r0,[sp,#0]
000026  4a15              LDR      r2,|L3.124|
000028  4619              MOV      r1,r3
00002a  4620              MOV      r0,r4
00002c  f7fffffe          BL       PDMA_SetTransferAddr
;;;901        /* Set request source; set basic mode. */
;;;902        PDMA_SetTransferMode(PDMA,SPI_MASTER_TX_DMA_CH, PDMA_SPI0_TX, FALSE, 0);
000030  2000              MOVS     r0,#0
000032  4603              MOV      r3,r0
000034  4601              MOV      r1,r0
000036  9000              STR      r0,[sp,#0]
000038  2212              MOVS     r2,#0x12
00003a  4620              MOV      r0,r4
00003c  f7fffffe          BL       PDMA_SetTransferMode
;;;903        /* Single request type. SPI only support PDMA single request type. */
;;;904        PDMA_SetBurstType(PDMA,SPI_MASTER_TX_DMA_CH, PDMA_REQ_SINGLE, 0);
000040  2300              MOVS     r3,#0
000042  2204              MOVS     r2,#4
000044  4619              MOV      r1,r3
000046  4620              MOV      r0,r4
000048  f7fffffe          BL       PDMA_SetBurstType
;;;905        /* Disable table interrupt */
;;;906        PDMA->DSCT[SPI_MASTER_TX_DMA_CH].CTL |= PDMA_DSCT_CTL_TBINTDIS_Msk;
00004c  6820              LDR      r0,[r4,#0]
00004e  2180              MOVS     r1,#0x80
000050  4308              ORRS     r0,r0,r1
000052  6020              STR      r0,[r4,#0]
;;;907        SPI_TRIGGER_TX_PDMA(SPI0);	
000054  4808              LDR      r0,|L3.120|
000056  3820              SUBS     r0,r0,#0x20
000058  68c1              LDR      r1,[r0,#0xc]
00005a  2201              MOVS     r2,#1
00005c  4311              ORRS     r1,r1,r2
00005e  60c1              STR      r1,[r0,#0xc]
;;;908    	
;;;909        PDMA_EnableInt(PDMA, SPI_MASTER_TX_DMA_CH, PDMA_INT_TRANS_DONE);
000060  2200              MOVS     r2,#0
000062  4611              MOV      r1,r2
000064  4620              MOV      r0,r4
000066  f7fffffe          BL       PDMA_EnableInt
00006a  4905              LDR      r1,|L3.128|
00006c  02e0              LSLS     r0,r4,#11
00006e  6008              STR      r0,[r1,#0]
;;;910        NVIC_EnableIRQ(PDMA_IRQn);
;;;911    }
000070  bd1c              POP      {r2-r4,pc}
;;;912    
                          ENDP

000072  0000              DCW      0x0000
                  |L3.116|
                          DCD      0x40008000
                  |L3.120|
                          DCD      0x40061020
                  |L3.124|
                          DCD      ||.bss||+0x36
                  |L3.128|
                          DCD      0xe000e100

                          AREA ||i.SPI_PDMA_Start||, CODE, READONLY, ALIGN=2

                  SPI_PDMA_Start PROC
;;;872    
;;;873    void SPI_PDMA_Start(uint8_t* DataIn , uint16_t DataCount)
000000  b57c              PUSH     {r2-r6,lr}
;;;874    {
;;;875    //	//insert process
;;;876    
;;;877    	//TX
;;;878    	PDMA_SetTransferCnt(PDMA,SPI_MASTER_TX_DMA_CH, PDMA_WIDTH_8, DataCount);
000002  4c16              LDR      r4,|L4.92|
000004  4605              MOV      r5,r0                 ;874
000006  460b              MOV      r3,r1
000008  2200              MOVS     r2,#0
00000a  4611              MOV      r1,r2
00000c  4620              MOV      r0,r4
00000e  f7fffffe          BL       PDMA_SetTransferCnt
;;;879    	PDMA_SetTransferAddr(PDMA,SPI_MASTER_TX_DMA_CH, (uint32_t)DataIn, PDMA_SAR_INC, (uint32_t)&SPI0->TX, PDMA_DAR_FIX);		
000012  2103              MOVS     r1,#3
000014  0289              LSLS     r1,r1,#10
000016  4812              LDR      r0,|L4.96|
000018  2300              MOVS     r3,#0
00001a  9101              STR      r1,[sp,#4]
00001c  9000              STR      r0,[sp,#0]
00001e  462a              MOV      r2,r5
000020  4619              MOV      r1,r3
000022  4620              MOV      r0,r4
000024  f7fffffe          BL       PDMA_SetTransferAddr
;;;880    	/* Set request source; set basic mode. */
;;;881    	PDMA_SetTransferMode(PDMA,SPI_MASTER_TX_DMA_CH, PDMA_SPI0_TX, FALSE, 0);
000028  2000              MOVS     r0,#0
00002a  4603              MOV      r3,r0
00002c  4601              MOV      r1,r0
00002e  9000              STR      r0,[sp,#0]
000030  2212              MOVS     r2,#0x12
000032  4620              MOV      r0,r4
000034  f7fffffe          BL       PDMA_SetTransferMode
;;;882        //Select Single Request
;;;883        PDMA_SetBurstType(PDMA, SPI_MASTER_TX_DMA_CH, PDMA_REQ_SINGLE, 0);
000038  2300              MOVS     r3,#0
00003a  2204              MOVS     r2,#4
00003c  4619              MOV      r1,r3
00003e  4620              MOV      r0,r4
000040  f7fffffe          BL       PDMA_SetBurstType
;;;884        /* Disable table interrupt */
;;;885    //    PDMA->DSCT[SPI_MASTER_TX_DMA_CH].CTL |= PDMA_DSCT_CTL_TBINTDIS_Msk;	
;;;886    	PDMA_DisableInt(PDMA, SPI_MASTER_TX_DMA_CH,PDMA_INT_TEMPTY);
000044  2201              MOVS     r2,#1
000046  2100              MOVS     r1,#0
000048  4620              MOV      r0,r4
00004a  f7fffffe          BL       PDMA_DisableInt
;;;887    		
;;;888    	SPI_TRIGGER_TX_PDMA(SPI0);
00004e  4804              LDR      r0,|L4.96|
000050  3820              SUBS     r0,r0,#0x20
000052  68c1              LDR      r1,[r0,#0xc]
000054  2201              MOVS     r2,#1
000056  4311              ORRS     r1,r1,r2
000058  60c1              STR      r1,[r0,#0xc]
;;;889    
;;;890    }
00005a  bd7c              POP      {r2-r6,pc}
;;;891    
                          ENDP

                  |L4.92|
                          DCD      0x40008000
                  |L4.96|
                          DCD      0x40061020

                          AREA ||i.SYS_Init||, CODE, READONLY, ALIGN=2

                  SYS_Init PROC
;;;1780   
;;;1781   void SYS_Init(void)
000000  b570              PUSH     {r4-r6,lr}
000002  2059              MOVS     r0,#0x59
000004  4c27              LDR      r4,|L5.164|
000006  2216              MOVS     r2,#0x16
000008  2188              MOVS     r1,#0x88
                  |L5.10|
00000a  6020              STR      r0,[r4,#0]
00000c  6022              STR      r2,[r4,#0]
00000e  6021              STR      r1,[r4,#0]
000010  6823              LDR      r3,[r4,#0]
000012  2b00              CMP      r3,#0
000014  d0f9              BEQ      |L5.10|
;;;1782   {
;;;1783       /* Unlock protected registers */
;;;1784       SYS_UnlockReg();
;;;1785   
;;;1786       /* Enable HIRC clock (Internal RC 48MHz) */
;;;1787       CLK_EnableXtalRC(CLK_PWRCTL_HIRCEN_Msk);
000016  2004              MOVS     r0,#4
000018  f7fffffe          BL       CLK_EnableXtalRC
;;;1788   
;;;1789       /* Wait for HIRC clock ready */
;;;1790       CLK_WaitClockReady(CLK_STATUS_HIRCSTB_Msk);
00001c  2010              MOVS     r0,#0x10
00001e  f7fffffe          BL       CLK_WaitClockReady
;;;1791   
;;;1792       /* Select HCLK clock source as HIRC and HCLK source divider as 1 */
;;;1793       CLK_SetHCLK(CLK_CLKSEL0_HCLKSEL_HIRC, CLK_CLKDIV0_HCLK(1));
000022  2100              MOVS     r1,#0
000024  2007              MOVS     r0,#7
000026  f7fffffe          BL       CLK_SetHCLK
;;;1794   
;;;1795       CLK_EnableModuleClock(UART0_MODULE);
00002a  4d1f              LDR      r5,|L5.168|
00002c  4628              MOV      r0,r5
00002e  f7fffffe          BL       CLK_EnableModuleClock
;;;1796       CLK_SetModuleClock(UART0_MODULE, CLK_CLKSEL1_UART0SEL_HIRC, CLK_CLKDIV0_UART0(1));
000032  2103              MOVS     r1,#3
000034  2200              MOVS     r2,#0
000036  0609              LSLS     r1,r1,#24
000038  4628              MOV      r0,r5
00003a  f7fffffe          BL       CLK_SetModuleClock
;;;1797       /* Set PB multi-function pins for UART0 RXD=PB.12 and TXD=PB.13 */
;;;1798       SYS->GPB_MFPH = (SYS->GPB_MFPH & ~(SYS_GPB_MFPH_PB12MFP_Msk | SYS_GPB_MFPH_PB13MFP_Msk)) |
00003e  06ad              LSLS     r5,r5,#26
000040  6be8              LDR      r0,[r5,#0x3c]
000042  21ff              MOVS     r1,#0xff
000044  0409              LSLS     r1,r1,#16
000046  4388              BICS     r0,r0,r1
000048  2133              MOVS     r1,#0x33
00004a  0449              LSLS     r1,r1,#17
00004c  1840              ADDS     r0,r0,r1
00004e  63e8              STR      r0,[r5,#0x3c]
;;;1799                       (SYS_GPB_MFPH_PB12MFP_UART0_RXD | SYS_GPB_MFPH_PB13MFP_UART0_TXD);
;;;1800   
;;;1801       CLK_EnableModuleClock(TMR0_MODULE);
000050  4e16              LDR      r6,|L5.172|
000052  4630              MOV      r0,r6
000054  f7fffffe          BL       CLK_EnableModuleClock
;;;1802     	CLK_SetModuleClock(TMR0_MODULE, CLK_CLKSEL1_TMR0SEL_HIRC, 0);
000058  2107              MOVS     r1,#7
00005a  2200              MOVS     r2,#0
00005c  0209              LSLS     r1,r1,#8
00005e  4630              MOV      r0,r6
000060  f7fffffe          BL       CLK_SetModuleClock
;;;1803   
;;;1804       CLK_EnableModuleClock(TMR1_MODULE);
000064  4e12              LDR      r6,|L5.176|
000066  4630              MOV      r0,r6
000068  f7fffffe          BL       CLK_EnableModuleClock
;;;1805       CLK_SetModuleClock(TMR1_MODULE, CLK_CLKSEL1_TMR1SEL_PCLK0, 0);
00006c  2200              MOVS     r2,#0
00006e  1469              ASRS     r1,r5,#17
000070  4630              MOV      r0,r6
000072  f7fffffe          BL       CLK_SetModuleClock
;;;1806   
;;;1807       CLK_SetModuleClock(SPI0_MODULE, CLK_CLKSEL2_SPI0SEL_PCLK1, MODULE_NoMsk);
000076  4e0f              LDR      r6,|L5.180|
000078  2200              MOVS     r2,#0
00007a  2120              MOVS     r1,#0x20
00007c  4630              MOV      r0,r6
00007e  f7fffffe          BL       CLK_SetModuleClock
;;;1808       CLK_EnableModuleClock(SPI0_MODULE);
000082  4630              MOV      r0,r6
000084  f7fffffe          BL       CLK_EnableModuleClock
;;;1809   
;;;1810       /* PA.3 is SPI0_SS,   PA.2 is SPI0_CLK,
;;;1811          PA.1 is SPI0_MISO, PA.0 is SPI0_MOSI*/
;;;1812       SYS->GPA_MFPL = (SYS->GPA_MFPL & ~(SYS_GPA_MFPL_PA3MFP_Msk |
000088  6b28              LDR      r0,[r5,#0x30]
00008a  490b              LDR      r1,|L5.184|
00008c  0c00              LSRS     r0,r0,#16
00008e  0400              LSLS     r0,r0,#16
000090  1840              ADDS     r0,r0,r1
000092  6328              STR      r0,[r5,#0x30]
;;;1813                                          SYS_GPA_MFPL_PA2MFP_Msk |
;;;1814                                          SYS_GPA_MFPL_PA1MFP_Msk |
;;;1815                                          SYS_GPA_MFPL_PA0MFP_Msk)) |
;;;1816                       (SYS_GPA_MFPL_PA3MFP_SPI0_SS |
;;;1817                        SYS_GPA_MFPL_PA2MFP_SPI0_CLK |
;;;1818                        SYS_GPA_MFPL_PA1MFP_SPI0_MISO |
;;;1819                        SYS_GPA_MFPL_PA0MFP_SPI0_MOSI);
;;;1820   
;;;1821       CLK_EnableModuleClock(PDMA_MODULE); 
000094  2001              MOVS     r0,#1
000096  f7fffffe          BL       CLK_EnableModuleClock
;;;1822   
;;;1823       /* Update System Core Clock */
;;;1824       SystemCoreClockUpdate();
00009a  f7fffffe          BL       SystemCoreClockUpdate
00009e  2000              MOVS     r0,#0
0000a0  6020              STR      r0,[r4,#0]
;;;1825   
;;;1826       /* Lock protected registers */
;;;1827       SYS_LockReg();
;;;1828   }
0000a2  bd70              POP      {r4-r6,pc}
;;;1829   
                          ENDP

                  |L5.164|
                          DCD      0x40000100
                  |L5.168|
                          DCD      0x5f803d10
                  |L5.172|
                          DCD      0x5e800002
                  |L5.176|
                          DCD      0x5ec00003
                  |L5.180|
                          DCD      0x6640000d
                  |L5.184|
                          DCD      0x00004444

                          AREA ||i.StateMachine||, CODE, READONLY, ALIGN=2

                  StateMachine PROC
;;;1618   
;;;1619   void StateMachine()
000000  b57f              PUSH     {r0-r6,lr}
;;;1620   {
;;;1621   //	if (DemoState++ >= state_Max)
;;;1622   //	{
;;;1623   //		DemoState = state_Default+1;
;;;1624   //	}
;;;1625   //	DemoState = 0;	//quick test
;;;1626   
;;;1627   	switch(DemoState)
000002  4840              LDR      r0,|L6.260|
;;;1628   	{
;;;1629   		case state_Rainbow:
;;;1630   			getRainbow(50);
;;;1631   			delay_ms(48);	
;;;1632   			break;
;;;1633   
;;;1634   		case state_RainbowCycle:
;;;1635   			getRainbowCycle(2 ,10);	//(5 , 1000);
;;;1636   //			delay_ms(120);
;;;1637   			break;
;;;1638   
;;;1639   		case state_TheaterChase:
;;;1640   			getTheaterChase(30,colorsFull[Coloridx][0], colorsFull[Coloridx][1], colorsFull[Coloridx][2]);
000004  4d40              LDR      r5,|L6.264|
000006  7801              LDRB     r1,[r0,#0]            ;1627  ; DemoState
000008  8940              LDRH     r0,[r0,#0xa]
00000a  0042              LSLS     r2,r0,#1
00000c  1884              ADDS     r4,r0,r2
00000e  1960              ADDS     r0,r4,r5
000010  2907              CMP      r1,#7                 ;1627
000012  d04c              BEQ      |L6.174|
000014  dc07              BGT      |L6.38|
000016  000b              MOVS     r3,r1                 ;1627
000018  f7fffffe          BL       __ARM_common_switch8
00001c  07112328          DCB      0x07,0x11,0x23,0x28
000020  2d34393d          DCB      0x2d,0x34,0x39,0x3d
000024  1100              DCB      0x11,0x00
                  |L6.38|
000026  2932              CMP      r1,#0x32              ;1627
000028  d05d              BEQ      |L6.230|
00002a  dc09              BGT      |L6.64|
00002c  2908              CMP      r1,#8                 ;1627
00002e  d045              BEQ      |L6.188|
000030  2909              CMP      r1,#9                 ;1627
000032  d04c              BEQ      |L6.206|
000034  2931              CMP      r1,#0x31              ;1627
000036  d102              BNE      |L6.62|
;;;1641   //			getTheaterChase(60,0x00,0xFF,0x00);
;;;1642   //			getTheaterChase(60,0x00,0x00,0xFF);
;;;1643   //			delay_ms(120);
;;;1644   
;;;1645   			setLED_ColorIdxChange();
;;;1646   			break;
;;;1647   
;;;1648   		case state_TheaterChaseRainbow:
;;;1649   			getTheaterChaseRainbow(1);
;;;1650   			delay_ms(240);
;;;1651   			break;
;;;1652   
;;;1653   		case state_RGBSequence:
;;;1654   			getRGBSequence(60);
;;;1655   
;;;1656   			break;
;;;1657   		
;;;1658   		case state_AlternateColors:
;;;1659   			getAlternateColors(128*500, 128, colorsFull[Coloridx][0], colorsFull[Coloridx][1], colorsFull[Coloridx][2], colorsFull[Coloridx][0], colorsFull[Coloridx][1], colorsFull[Coloridx][2]);
;;;1660   
;;;1661   			setLED_ColorIdxChange();
;;;1662   			break;
;;;1663   
;;;1664   		case state_FullEmpty:
;;;1665   			getFullEmpty(30, colorsFull[Coloridx][0], colorsFull[Coloridx][1], colorsFull[Coloridx][2]);
;;;1666   
;;;1667   			setLED_ColorIdxChange();
;;;1668   			break;
;;;1669   		
;;;1670   		case state_PatternMove:
;;;1671   			getPatternMove(50, 10, colorsFull[Coloridx][0], colorsFull[Coloridx][1], colorsFull[Coloridx][2]);
;;;1672   
;;;1673   			setLED_ColorIdxChange();
;;;1674   			break;
;;;1675   
;;;1676   		#if defined (ENABLE_EXTRA_DEMO)
;;;1677   		case state_ColorWheel:
;;;1678   			getColorWheel(60);
;;;1679   			
;;;1680   			setLED_ColorWipe(0, 0, 0);
;;;1681   			delay_ms(120);
;;;1682   			break;
;;;1683   
;;;1684   		case state_AllColors:
;;;1685   			getAllColors(10);	
000038  200a              MOVS     r0,#0xa
00003a  f7fffffe          BL       getAllColors
                  |L6.62|
;;;1686   			break;
;;;1687   		#endif	/*ENABLE_EXTRA_DEMO*/
;;;1688   
;;;1689   		case state_HeartBeat:
;;;1690   			getHeartBeat(900, colorsFull[Coloridx][0], colorsFull[Coloridx][1], colorsFull[Coloridx][2]);
;;;1691   
;;;1692   			setLED_ColorIdxChange();
;;;1693   			break;	
;;;1694   
;;;1695   		case state_CircularRing:
;;;1696   			getCircularRing(30, colorsFull[Coloridx][0], colorsFull[Coloridx][1], colorsFull[Coloridx][2]);
;;;1697   	
;;;1698   			setLED_ColorIdxChange();
;;;1699   			break;	
;;;1700   		
;;;1701   		case state_FromAToB:
;;;1702   			getFromAToB(512, 16, colorsFull[Coloridx][0], colorsFull[Coloridx][1], colorsFull[Coloridx][2], colorsFull[Coloridx][0], colorsFull[Coloridx][1], colorsFull[Coloridx][2]);
;;;1703   		
;;;1704   			setLED_ColorIdxChange();
;;;1705   			break;	
;;;1706   			
;;;1707   	}
;;;1708   
;;;1709   //	delay_ms(DEMO_MS);
;;;1710   }
00003e  bd7f              POP      {r0-r6,pc}
                  |L6.64|
000040  2933              CMP      r1,#0x33              ;1627
000042  d058              BEQ      |L6.246|
000044  2934              CMP      r1,#0x34              ;1627
000046  d1fa              BNE      |L6.62|
000048  7881              LDRB     r1,[r0,#2]            ;1702
00004a  7843              LDRB     r3,[r0,#1]            ;1702
00004c  5d2a              LDRB     r2,[r5,r4]            ;1702
00004e  466e              MOV      r6,sp                 ;1702
000050  c60e              STM      r6!,{r1-r3}           ;1702
000052  9103              STR      r1,[sp,#0xc]          ;1702
000054  2110              MOVS     r1,#0x10              ;1702
000056  0148              LSLS     r0,r1,#5              ;1702
000058  f7fffffe          BL       getFromAToB
                  |L6.92|
00005c  f7fffffe          BL       setLED_ColorIdxChange
000060  bd7f              POP      {r0-r6,pc}
000062  2032              MOVS     r0,#0x32              ;1630
000064  f7fffffe          BL       getRainbow
000068  2030              MOVS     r0,#0x30              ;1631
00006a  e039              B        |L6.224|
00006c  210a              MOVS     r1,#0xa               ;1635
00006e  2002              MOVS     r0,#2                 ;1635
000070  f7fffffe          BL       getRainbowCycle
000074  bd7f              POP      {r0-r6,pc}
000076  7883              LDRB     r3,[r0,#2]            ;1640
000078  7842              LDRB     r2,[r0,#1]            ;1640
00007a  5d29              LDRB     r1,[r5,r4]            ;1640
00007c  201e              MOVS     r0,#0x1e              ;1640
00007e  f7fffffe          BL       getTheaterChase
000082  e7eb              B        |L6.92|
000084  2001              MOVS     r0,#1                 ;1649
000086  f7fffffe          BL       getTheaterChaseRainbow
00008a  20f0              MOVS     r0,#0xf0              ;1650
00008c  e028              B        |L6.224|
00008e  203c              MOVS     r0,#0x3c              ;1654
000090  f7fffffe          BL       getRGBSequence
000094  bd7f              POP      {r0-r6,pc}
000096  7881              LDRB     r1,[r0,#2]            ;1659
000098  7843              LDRB     r3,[r0,#1]            ;1659
00009a  5d2a              LDRB     r2,[r5,r4]            ;1659
00009c  466e              MOV      r6,sp                 ;1659
00009e  c60e              STM      r6!,{r1-r3}           ;1659
0000a0  9103              STR      r1,[sp,#0xc]          ;1659
0000a2  207d              MOVS     r0,#0x7d              ;1659
0000a4  2180              MOVS     r1,#0x80              ;1659
0000a6  0240              LSLS     r0,r0,#9              ;1659
0000a8  f7fffffe          BL       getAlternateColors
0000ac  e7d6              B        |L6.92|
                  |L6.174|
0000ae  7883              LDRB     r3,[r0,#2]            ;1665
0000b0  7842              LDRB     r2,[r0,#1]            ;1665
0000b2  5d29              LDRB     r1,[r5,r4]            ;1665
0000b4  201e              MOVS     r0,#0x1e              ;1665
0000b6  f7fffffe          BL       getFullEmpty
0000ba  e7cf              B        |L6.92|
                  |L6.188|
0000bc  7881              LDRB     r1,[r0,#2]            ;1671
0000be  9100              STR      r1,[sp,#0]            ;1671
0000c0  7843              LDRB     r3,[r0,#1]            ;1671
0000c2  5d2a              LDRB     r2,[r5,r4]            ;1671
0000c4  210a              MOVS     r1,#0xa               ;1671
0000c6  2032              MOVS     r0,#0x32              ;1671
0000c8  f7fffffe          BL       getPatternMove
0000cc  e7c6              B        |L6.92|
                  |L6.206|
0000ce  203c              MOVS     r0,#0x3c              ;1678
0000d0  f7fffffe          BL       getColorWheel
0000d4  2200              MOVS     r2,#0                 ;1680
0000d6  4611              MOV      r1,r2                 ;1680
0000d8  4610              MOV      r0,r2                 ;1680
0000da  f7fffffe          BL       setLED_ColorWipe
0000de  2078              MOVS     r0,#0x78              ;1681
                  |L6.224|
0000e0  f7fffffe          BL       delay_ms
0000e4  bd7f              POP      {r0-r6,pc}
                  |L6.230|
0000e6  7883              LDRB     r3,[r0,#2]            ;1690
0000e8  7842              LDRB     r2,[r0,#1]            ;1690
0000ea  20e1              MOVS     r0,#0xe1              ;1690
0000ec  5d29              LDRB     r1,[r5,r4]            ;1690
0000ee  0080              LSLS     r0,r0,#2              ;1690
0000f0  f7fffffe          BL       getHeartBeat
0000f4  e7b2              B        |L6.92|
                  |L6.246|
0000f6  7883              LDRB     r3,[r0,#2]            ;1696
0000f8  7842              LDRB     r2,[r0,#1]            ;1696
0000fa  5d29              LDRB     r1,[r5,r4]            ;1696
0000fc  201e              MOVS     r0,#0x1e              ;1696
0000fe  f7fffffe          BL       getCircularRing
000102  e7ab              B        |L6.92|
;;;1711   
                          ENDP

                  |L6.260|
                          DCD      ||.data||
                  |L6.264|
                          DCD      ||.constdata||

                          AREA ||i.TIMER1_Init||, CODE, READONLY, ALIGN=2

                  TIMER1_Init PROC
;;;1772   
;;;1773   void TIMER1_Init(void)
000000  b510              PUSH     {r4,lr}
;;;1774   {
;;;1775       TIMER_Open(TIMER1, TIMER_PERIODIC_MODE, 1000);
000002  4c0a              LDR      r4,|L7.44|
000004  227d              MOVS     r2,#0x7d
000006  2101              MOVS     r1,#1
000008  00d2              LSLS     r2,r2,#3
00000a  06c9              LSLS     r1,r1,#27
00000c  4620              MOV      r0,r4
00000e  f7fffffe          BL       TIMER_Open
000012  6820              LDR      r0,[r4,#0]
000014  0621              LSLS     r1,r4,#24
000016  4308              ORRS     r0,r0,r1
000018  6020              STR      r0,[r4,#0]
00001a  1508              ASRS     r0,r1,#20
00001c  4904              LDR      r1,|L7.48|
00001e  6008              STR      r0,[r1,#0]
000020  6820              LDR      r0,[r4,#0]
000022  0589              LSLS     r1,r1,#22
000024  4308              ORRS     r0,r0,r1
000026  6020              STR      r0,[r4,#0]
;;;1776       TIMER_EnableInt(TIMER1);
;;;1777       NVIC_EnableIRQ(TMR1_IRQn);	
;;;1778       TIMER_Start(TIMER1);
;;;1779   }
000028  bd10              POP      {r4,pc}
;;;1780   
                          ENDP

00002a  0000              DCW      0x0000
                  |L7.44|
                          DCD      0x40050020
                  |L7.48|
                          DCD      0xe000e100

                          AREA ||i.TMR1_IRQHandler||, CODE, READONLY, ALIGN=2

                  TMR1_IRQHandler PROC
;;;1757   
;;;1758   void TMR1_IRQHandler(void)
000000  4908              LDR      r1,|L8.36|
000002  6888              LDR      r0,[r1,#8]
000004  07c0              LSLS     r0,r0,#31
000006  0fc0              LSRS     r0,r0,#31
;;;1759   {
000008  d00b              BEQ      |L8.34|
00000a  2001              MOVS     r0,#1
00000c  6088              STR      r0,[r1,#8]
;;;1760   	static uint16_t CNT = 0;
;;;1761   	
;;;1762       if(TIMER_GetIntFlag(TIMER1) == 1)
;;;1763       {
;;;1764           TIMER_ClearIntFlag(TIMER1);
;;;1765   	
;;;1766   		if (CNT++ >= 1000)
00000e  4906              LDR      r1,|L8.40|
000010  8988              LDRH     r0,[r1,#0xc]  ; CNT
000012  1c42              ADDS     r2,r0,#1
000014  818a              STRH     r2,[r1,#0xc]
000016  227d              MOVS     r2,#0x7d
000018  00d2              LSLS     r2,r2,#3
00001a  4290              CMP      r0,r2
00001c  d301              BCC      |L8.34|
;;;1767   		{		
;;;1768   			CNT = 0;
00001e  2000              MOVS     r0,#0
000020  8188              STRH     r0,[r1,#0xc]
                  |L8.34|
;;;1769   		}
;;;1770       }
;;;1771   }
000022  4770              BX       lr
;;;1772   
                          ENDP

                  |L8.36|
                          DCD      0x40050020
                  |L8.40|
                          DCD      ||.data||

                          AREA ||i.UART02_IRQHandler||, CODE, READONLY, ALIGN=2

                  UART02_IRQHandler PROC
;;;1732   
;;;1733   void UART02_IRQHandler(void)
000000  b510              PUSH     {r4,lr}
;;;1734   {
;;;1735   
;;;1736       if(UART_GET_INT_FLAG(UART0, UART_INTSTS_RDAINT_Msk | UART_INTSTS_RXTOINT_Msk))     /* UART receive data available flag */
000002  4c0b              LDR      r4,|L9.48|
000004  69e0              LDR      r0,[r4,#0x1c]
000006  2111              MOVS     r1,#0x11
000008  0209              LSLS     r1,r1,#8
00000a  4208              TST      r0,r1
00000c  d102              BNE      |L9.20|
00000e  e004              B        |L9.26|
                  |L9.16|
;;;1737       {
;;;1738           while(UART_GET_RX_EMPTY(UART0) == 0)
;;;1739           {
;;;1740               UARTx_Process();
000010  f7fffffe          BL       UARTx_Process
                  |L9.20|
000014  69a1              LDR      r1,[r4,#0x18]         ;1738
000016  0449              LSLS     r1,r1,#17             ;1738
000018  d5fa              BPL      |L9.16|
                  |L9.26|
;;;1741           }
;;;1742       }
;;;1743   
;;;1744       if(UART0->FIFOSTS & (UART_FIFOSTS_BIF_Msk | UART_FIFOSTS_FEF_Msk | UART_FIFOSTS_PEF_Msk | UART_FIFOSTS_RXOVIF_Msk))
00001a  69a1              LDR      r1,[r4,#0x18]
00001c  4620              MOV      r0,r4
00001e  2271              MOVS     r2,#0x71
000020  4211              TST      r1,r2
000022  d003              BEQ      |L9.44|
;;;1745       {
;;;1746           UART_ClearIntFlag(UART0, (UART_INTSTS_RLSINT_Msk| UART_INTSTS_BUFERRINT_Msk));
000024  2109              MOVS     r1,#9
000026  0289              LSLS     r1,r1,#10
000028  f7fffffe          BL       UART_ClearIntFlag
                  |L9.44|
;;;1747       }
;;;1748   
;;;1749   	
;;;1750   }
00002c  bd10              POP      {r4,pc}
;;;1751   
                          ENDP

00002e  0000              DCW      0x0000
                  |L9.48|
                          DCD      0x40070000

                          AREA ||i.UARTx_Process||, CODE, READONLY, ALIGN=2

                          REQUIRE _printf_pre_padding
                          REQUIRE _printf_percent
                          REQUIRE _printf_widthprec
                          REQUIRE _printf_d
                          REQUIRE _printf_int_dec
                  UARTx_Process PROC
;;;1711   
;;;1712   void UARTx_Process(void)
000000  b510              PUSH     {r4,lr}
;;;1713   {
;;;1714   	uint8_t res = 0;
;;;1715   	res = UART_READ(UART0);
000002  480f              LDR      r0,|L10.64|
000004  6800              LDR      r0,[r0,#0]
000006  b2c0              UXTB     r0,r0
;;;1716   
;;;1717   	if (res == 'x' || res == 'X')
000008  2878              CMP      r0,#0x78
00000a  d007              BEQ      |L10.28|
00000c  2858              CMP      r0,#0x58
00000e  d005              BEQ      |L10.28|
;;;1718   	{
;;;1719   		NVIC_SystemReset();
;;;1720   	}
;;;1721   
;;;1722   	if (res > 0x7F)
000010  287f              CMP      r0,#0x7f
000012  d90c              BLS      |L10.46|
;;;1723   	{
;;;1724   		printf("invalid command\r\n");
000014  a00b              ADR      r0,|L10.68|
000016  f7fffffe          BL       __2printf
;;;1725   	}
;;;1726   	else
;;;1727   	{
;;;1728   		DemoState = res - 0x30;
;;;1729   		printf("DemoState = %2d\r\n" , DemoState);
;;;1730   	}
;;;1731   }
00001a  bd10              POP      {r4,pc}
                  |L10.28|
00001c  f3bf8f4f          DSB      
000020  490e              LDR      r1,|L10.92|
000022  480d              LDR      r0,|L10.88|
000024  60c8              STR      r0,[r1,#0xc]
000026  f3bf8f4f          DSB      
                  |L10.42|
00002a  bf00              NOP      
00002c  e7fd              B        |L10.42|
                  |L10.46|
00002e  3830              SUBS     r0,r0,#0x30
000030  b2c1              UXTB     r1,r0                 ;1728
000032  480b              LDR      r0,|L10.96|
000034  7001              STRB     r1,[r0,#0]            ;1728
000036  a00b              ADR      r0,|L10.100|
000038  f7fffffe          BL       __2printf
00003c  bd10              POP      {r4,pc}
;;;1732   
                          ENDP

00003e  0000              DCW      0x0000
                  |L10.64|
                          DCD      0x40070000
                  |L10.68|
000044  696e7661          DCB      "invalid command\r\n",0
000048  6c696420
00004c  636f6d6d
000050  616e640d
000054  0a00    
000056  00                DCB      0
000057  00                DCB      0
                  |L10.88|
                          DCD      0x05fa0004
                  |L10.92|
                          DCD      0xe000ed00
                  |L10.96|
                          DCD      ||.data||
                  |L10.100|
000064  44656d6f          DCB      "DemoState = %2d\r\n",0
000068  53746174
00006c  65203d20
000070  2532640d
000074  0a00    
000076  00                DCB      0
000077  00                DCB      0

                          AREA ||i.WS2812C_DATA0||, CODE, READONLY, ALIGN=2

                  WS2812C_DATA0 PROC
;;;972    
;;;973    void WS2812C_DATA0(void)
000000  4803              LDR      r0,|L11.16|
                  |L11.2|
;;;974    {
;;;975    	while(!SPI_GET_TX_FIFO_EMPTY_FLAG(SPI0));	
000002  6941              LDR      r1,[r0,#0x14]
000004  03c9              LSLS     r1,r1,#15
000006  d5fc              BPL      |L11.2|
;;;976    	SPI_WRITE_TX(SPI0, WS_SPI_LOW);	
000008  21c0              MOVS     r1,#0xc0
00000a  6201              STR      r1,[r0,#0x20]
;;;977    }
00000c  4770              BX       lr
;;;978    
                          ENDP

00000e  0000              DCW      0x0000
                  |L11.16|
                          DCD      0x40061000

                          AREA ||i.WS2812C_DATA1||, CODE, READONLY, ALIGN=2

                  WS2812C_DATA1 PROC
;;;966    
;;;967    void WS2812C_DATA1(void)
000000  4803              LDR      r0,|L12.16|
                  |L12.2|
;;;968    {
;;;969    	while(!SPI_GET_TX_FIFO_EMPTY_FLAG(SPI0));	
000002  6941              LDR      r1,[r0,#0x14]
000004  03c9              LSLS     r1,r1,#15
000006  d5fc              BPL      |L12.2|
;;;970    	SPI_WRITE_TX(SPI0, WS_SPI_HIGH);	
000008  21fc              MOVS     r1,#0xfc
00000a  6201              STR      r1,[r0,#0x20]
;;;971    }
00000c  4770              BX       lr
;;;972    
                          ENDP

00000e  0000              DCW      0x0000
                  |L12.16|
                          DCD      0x40061000

                          AREA ||i.WS2812C_Initial||, CODE, READONLY, ALIGN=2

                  WS2812C_Initial PROC
;;;1011   
;;;1012   void WS2812C_Initial(void)
000000  b538              PUSH     {r3-r5,lr}
;;;1013   {      
;;;1014   	//PA.0 : SPI0_MOSI , PWM0_CH5 , D11
;;;1015   
;;;1016   	SPI_Open(SPI0, SPI_MASTER, SPI_MODE_0, 8, WS_SPI_FREQ);
000002  4808              LDR      r0,|L13.36|
000004  4c08              LDR      r4,|L13.40|
000006  9000              STR      r0,[sp,#0]
000008  2308              MOVS     r3,#8
00000a  2204              MOVS     r2,#4
00000c  2100              MOVS     r1,#0
00000e  4620              MOV      r0,r4
000010  f7fffffe          BL       SPI_Open
;;;1017   	SPI_EnableAutoSS(SPI0, SPI_SS, SPI_SS_ACTIVE_LOW);
000014  2200              MOVS     r2,#0
000016  2101              MOVS     r1,#1
000018  4620              MOV      r0,r4
00001a  f7fffffe          BL       SPI_EnableAutoSS
;;;1018   
;;;1019   	SPI_PDMA_Init();
00001e  f7fffffe          BL       SPI_PDMA_Init
;;;1020   
;;;1021   }
000022  bd38              POP      {r3-r5,pc}
;;;1022   
                          ENDP

                  |L13.36|
                          DCD      0x006acfc0
                  |L13.40|
                          DCD      0x40061000

                          AREA ||i.WS2812C_Send_1Byte||, CODE, READONLY, ALIGN=1

                  WS2812C_Send_1Byte PROC
;;;978    
;;;979    void WS2812C_Send_1Byte(uint8_t Data)
000000  b500              PUSH     {lr}
;;;980    {
000002  4603              MOV      r3,r0
;;;981    	uint8_t i = 0;
000004  2200              MOVS     r2,#0
                  |L14.6|
;;;982    
;;;983    	for (i = 0; i < 8; i ++)
;;;984    	{
;;;985    		if (Data & 0x80)
000006  0618              LSLS     r0,r3,#24
000008  d502              BPL      |L14.16|
;;;986    		{
;;;987    			WS2812C_DATA1();
00000a  f7fffffe          BL       WS2812C_DATA1
00000e  e001              B        |L14.20|
                  |L14.16|
;;;988    		}
;;;989    		else
;;;990    		{
;;;991    			WS2812C_DATA0();
000010  f7fffffe          BL       WS2812C_DATA0
                  |L14.20|
;;;992    		}
;;;993    		Data <<= 1;	
000014  0658              LSLS     r0,r3,#25
000016  1c52              ADDS     r2,r2,#1
000018  0e03              LSRS     r3,r0,#24
00001a  b2d2              UXTB     r2,r2                 ;983
00001c  2a08              CMP      r2,#8                 ;983
00001e  d3f2              BCC      |L14.6|
;;;994    	} 	
;;;995    	
;;;996    }
000020  bd00              POP      {pc}
;;;997    
                          ENDP


                          AREA ||i.WS2812C_Send_1bit||, CODE, READONLY, ALIGN=1

                  WS2812C_Send_1bit PROC
;;;998    
;;;999    void WS2812C_Send_1bit(uint8_t Data)
000000  b500              PUSH     {lr}
;;;1000   {
;;;1001   	switch(Data)
000002  2800              CMP      r0,#0
000004  d002              BEQ      |L15.12|
;;;1002   	{
;;;1003   		case 0: 
;;;1004   			WS2812C_DATA0();				
;;;1005   			break;
;;;1006   		default:
;;;1007   			WS2812C_DATA1();
000006  f7fffffe          BL       WS2812C_DATA1
;;;1008   			break;
;;;1009   	}	
;;;1010   }
00000a  bd00              POP      {pc}
                  |L15.12|
00000c  f7fffffe          BL       WS2812C_DATA0
000010  bd00              POP      {pc}
;;;1011   
                          ENDP


                          AREA ||i._stripEffect_Rainbow||, CODE, READONLY, ALIGN=2

                  _stripEffect_Rainbow PROC
;;;1141   //https://github.com/fduignan/NucleoF042_SingleWS2812B/blob/master/main.c
;;;1142   void _stripEffect_Rainbow(uint8_t* RED, uint8_t* GREEN, uint8_t* BLUE)	
000000  b5f7              PUSH     {r0-r2,r4-r7,lr}
;;;1143   {   
;;;1144   	// Cycle through the colours of the rainbow (non-uniform brightness however)
;;;1145   	// Inspired by : http://academe.co.uk/2012/04/arduino-cycling-through-colours-of-the-rainbow/
;;;1146   	
;;;1147   	static uint8_t Red = 255;
;;;1148   	static uint8_t Green = 0;
;;;1149   	static uint8_t Blue = 0;
;;;1150   	static uint8_t State = 0;
;;;1151   	switch (State)
000002  4a1f              LDR      r2,|L16.128|
000004  4613              MOV      r3,r2
000006  7957              LDRB     r7,[r2,#5]  ; State
;;;1152   	{
;;;1153   		case 0:{
;;;1154   			Green++;
000008  78de              LDRB     r6,[r3,#3]
;;;1155   			if (Green == 255)
;;;1156   				State = 1;
;;;1157   			break;
;;;1158   		}
;;;1159   		case 1:{
;;;1160   			Red--;
00000a  789d              LDRB     r5,[r3,#2]
;;;1161   			if (Red == 0)
;;;1162   				State = 2;
;;;1163   			break;
;;;1164   		}
;;;1165   		case 2:{
;;;1166   			Blue++;
00000c  791c              LDRB     r4,[r3,#4]
00000e  003b              MOVS     r3,r7                 ;1151
000010  f7fffffe          BL       __ARM_common_switch8
000014  06040b12          DCB      0x06,0x04,0x0b,0x12
000018  1920272d          DCB      0x19,0x20,0x27,0x2d
00001c  1c76              ADDS     r6,r6,#1              ;1151
00001e  b2f3              UXTB     r3,r6                 ;1154
000020  70d3              STRB     r3,[r2,#3]            ;1154
000022  2bff              CMP      r3,#0xff              ;1155
000024  d123              BNE      |L16.110|
000026  2301              MOVS     r3,#1                 ;1156
000028  e020              B        |L16.108|
00002a  1e6d              SUBS     r5,r5,#1              ;1156
00002c  062b              LSLS     r3,r5,#24             ;1160
00002e  0e1b              LSRS     r3,r3,#24             ;1160
000030  7093              STRB     r3,[r2,#2]            ;1160
000032  d11c              BNE      |L16.110|
000034  2302              MOVS     r3,#2                 ;1162
000036  e019              B        |L16.108|
000038  1c64              ADDS     r4,r4,#1              ;1162
00003a  b2e3              UXTB     r3,r4
00003c  7113              STRB     r3,[r2,#4]
;;;1167   			if (Blue == 255)
00003e  2bff              CMP      r3,#0xff
000040  d115              BNE      |L16.110|
;;;1168   				State = 3;			
000042  2303              MOVS     r3,#3
000044  e012              B        |L16.108|
000046  1e76              SUBS     r6,r6,#1
;;;1169   			break;
;;;1170   		}
;;;1171   		case 3:{
;;;1172   			Green--;
000048  0633              LSLS     r3,r6,#24
00004a  0e1b              LSRS     r3,r3,#24
00004c  70d3              STRB     r3,[r2,#3]
;;;1173   			if (Green == 0)
00004e  d10e              BNE      |L16.110|
;;;1174   				State = 4;
000050  2304              MOVS     r3,#4
000052  e00b              B        |L16.108|
000054  1c6d              ADDS     r5,r5,#1
;;;1175   			break;
;;;1176   		}
;;;1177   		case 4:{
;;;1178   			Red++;
000056  b2eb              UXTB     r3,r5
000058  7093              STRB     r3,[r2,#2]
;;;1179   			if (Red == 255)
00005a  2bff              CMP      r3,#0xff
00005c  d107              BNE      |L16.110|
;;;1180   				State = 5;
00005e  2305              MOVS     r3,#5
000060  e004              B        |L16.108|
000062  1e64              SUBS     r4,r4,#1
;;;1181   			break;
;;;1182   		}
;;;1183   		case 5:{
;;;1184   			Blue --;
000064  0623              LSLS     r3,r4,#24
000066  0e1b              LSRS     r3,r3,#24
000068  7113              STRB     r3,[r2,#4]
;;;1185   			if (Blue == 0)
00006a  d100              BNE      |L16.110|
                  |L16.108|
;;;1186   				State = 0;
00006c  7153              STRB     r3,[r2,#5]
                  |L16.110|
;;;1187   			break;
;;;1188   		}		
;;;1189   	}
;;;1190   
;;;1191   	*GREEN = Green;
00006e  78d3              LDRB     r3,[r2,#3]  ; Green
000070  700b              STRB     r3,[r1,#0]
;;;1192   	*RED = Red;
000072  7891              LDRB     r1,[r2,#2]  ; Red
000074  7001              STRB     r1,[r0,#0]
;;;1193   	*BLUE = Blue;	
000076  9802              LDR      r0,[sp,#8]
000078  7911              LDRB     r1,[r2,#4]  ; Blue
00007a  7001              STRB     r1,[r0,#0]
;;;1194   //	return (Green << 16) + (Red << 8) + Blue;
;;;1195   
;;;1196   
;;;1197   }
00007c  bdfe              POP      {r1-r7,pc}
;;;1198   
                          ENDP

00007e  0000              DCW      0x0000
                  |L16.128|
                          DCD      ||.data||

                          AREA ||i._stripEffect_Wheel||, CODE, READONLY, ALIGN=1

                  _stripEffect_Wheel PROC
;;;1198   
;;;1199   uint8_t _stripEffect_Wheel(uint8_t WheelPos , uint8_t* RED, uint8_t* GREEN, uint8_t* BLUE) 
000000  b570              PUSH     {r4-r6,lr}
;;;1200   {
;;;1201   	WheelPos = 255 - WheelPos;
000002  24ff              MOVS     r4,#0xff
000004  1a20              SUBS     r0,r4,r0
000006  2500              MOVS     r5,#0
;;;1202   	if(WheelPos < 85) 
000008  2855              CMP      r0,#0x55
00000a  d205              BCS      |L17.24|
;;;1203   	{
;;;1204   		*GREEN = 0;
00000c  7015              STRB     r5,[r2,#0]
;;;1205   		*RED = 255 - WheelPos * 3;
00000e  0042              LSLS     r2,r0,#1
000010  1880              ADDS     r0,r0,r2
000012  1a22              SUBS     r2,r4,r0
000014  700a              STRB     r2,[r1,#0]
;;;1206   		*BLUE = WheelPos * 3;
;;;1207   		return 0;
000016  e007              B        |L17.40|
                  |L17.24|
;;;1208   		
;;;1209   //		return PACK_RGB(255 - WheelPos * 3, 0, WheelPos * 3);
;;;1210   	}
;;;1211   	if(WheelPos < 170) 
000018  28aa              CMP      r0,#0xaa
00001a  d207              BCS      |L17.44|
00001c  3855              SUBS     r0,r0,#0x55
;;;1212   	{
;;;1213   		WheelPos -= 85;
;;;1214   
;;;1215   		*GREEN = WheelPos * 3;
00001e  0046              LSLS     r6,r0,#1
000020  1980              ADDS     r0,r0,r6
000022  7010              STRB     r0,[r2,#0]
;;;1216   		*RED = 0;
000024  700d              STRB     r5,[r1,#0]
;;;1217   		*BLUE = 255 - WheelPos * 3;
000026  1a20              SUBS     r0,r4,r0
                  |L17.40|
000028  7018              STRB     r0,[r3,#0]            ;1206
00002a  e006              B        |L17.58|
                  |L17.44|
00002c  38aa              SUBS     r0,r0,#0xaa           ;1206
;;;1218   		return 0;
;;;1219   		
;;;1220   //		return PACK_RGB(0, WheelPos * 3, 255 - WheelPos * 3);
;;;1221   	}
;;;1222   	
;;;1223   	WheelPos -= 170;
;;;1224   
;;;1225   	*GREEN = 255 - WheelPos * 3;
00002e  0046              LSLS     r6,r0,#1
000030  1980              ADDS     r0,r0,r6
000032  1a24              SUBS     r4,r4,r0
000034  7014              STRB     r4,[r2,#0]
;;;1226   	*RED = WheelPos * 3;
000036  7008              STRB     r0,[r1,#0]
;;;1227   	*BLUE = 0;
000038  701d              STRB     r5,[r3,#0]
                  |L17.58|
;;;1228   	return 0;
00003a  2000              MOVS     r0,#0
;;;1229   	
;;;1230   //	return PACK_RGB(WheelPos * 3, 255 - WheelPos * 3, 0);
;;;1231   }
00003c  bd70              POP      {r4-r6,pc}
;;;1232   
                          ENDP


                          AREA ||i.delay||, CODE, READONLY, ALIGN=1

                  delay PROC
                  |L18.0|
;;;944    
;;;945    void delay(uint16_t dly)
000000  4601              MOV      r1,r0
;;;946    {
;;;947    /*
;;;948    	delay(100) : 14.84 us
;;;949    	delay(200) : 29.37 us
;;;950    	delay(300) : 43.97 us
;;;951    	delay(400) : 58.5 us	
;;;952    	delay(500) : 73.13 us	
;;;953    	
;;;954    	delay(1500) : 0.218 ms (218 us)
;;;955    	delay(2000) : 0.291 ms (291 us)	
;;;956    */
;;;957    
;;;958    	while( dly--);
000002  1e40              SUBS     r0,r0,#1
000004  b280              UXTH     r0,r0
000006  2900              CMP      r1,#0
000008  d1fa              BNE      |L18.0|
;;;959    }
00000a  4770              BX       lr
;;;960    
                          ENDP


                          AREA ||i.delay_ms||, CODE, READONLY, ALIGN=2

                  delay_ms PROC
;;;961    
;;;962    void delay_ms(uint16_t ms)
000000  217d              MOVS     r1,#0x7d
;;;963    {
;;;964    	TIMER_Delay(TIMER0, 1000*ms);
000002  00c9              LSLS     r1,r1,#3
000004  b510              PUSH     {r4,lr}               ;963
000006  4341              MULS     r1,r0,r1
000008  4801              LDR      r0,|L19.16|
00000a  f7fffffe          BL       TIMER_Delay
;;;965    }
00000e  bd10              POP      {r4,pc}
;;;966    
                          ENDP

                  |L19.16|
                          DCD      0x40050000

                          AREA ||i.getAllColors||, CODE, READONLY, ALIGN=2

                  getAllColors PROC
;;;1319   #if defined (ENABLE_EXTRA_DEMO)
;;;1320   void getAllColors(uint16_t time) 
000000  b5f1              PUSH     {r0,r4-r7,lr}
;;;1321   {
;;;1322   	uint16_t index = 0 ;
000002  2500              MOVS     r5,#0
                  |L20.4|
;;;1323   	uint8_t led = 0;
;;;1324   
;;;1325   	for (index = 0;index < COLORTALBE_NUM;index++)
;;;1326   	{
;;;1327   		#if 1
;;;1328   		for (led = 0; led < LED_NUM; led++)
;;;1329   		{
;;;1330   			setLED_Color(led,colorsFull[index][0],colorsFull[index][1],colorsFull[index][2]);			
000004  0068              LSLS     r0,r5,#1
000006  182f              ADDS     r7,r5,r0
000008  480c              LDR      r0,|L20.60|
00000a  2400              MOVS     r4,#0                 ;1328
00000c  183e              ADDS     r6,r7,r0
                  |L20.14|
00000e  480b              LDR      r0,|L20.60|
000010  78b3              LDRB     r3,[r6,#2]
000012  5dc1              LDRB     r1,[r0,r7]
000014  7872              LDRB     r2,[r6,#1]
000016  4620              MOV      r0,r4
000018  f7fffffe          BL       setLED_Color
00001c  1c64              ADDS     r4,r4,#1
00001e  b2e4              UXTB     r4,r4                 ;1328
000020  2c12              CMP      r4,#0x12              ;1328
000022  d3f4              BCC      |L20.14|
;;;1331   		}
;;;1332   	
;;;1333   		#else
;;;1334   		for (led = 0; led < LED_NUM; led++)
;;;1335   		{
;;;1336   			setLED_Color(led,colorsFull[index + led][0],colorsFull[index + led][1],colorsFull[index + led][2]);
;;;1337   			
;;;1338   		}
;;;1339   	
;;;1340   		if ((index + led) >= COLORTALBE_NUM)
;;;1341   			index = 0;
;;;1342   		#endif
;;;1343   
;;;1344   		setLED_Display(LED_DATA_LEN);
000024  2036              MOVS     r0,#0x36
000026  f7fffffe          BL       setLED_Display
;;;1345   		
;;;1346   		delay_ms(time);
00002a  9800              LDR      r0,[sp,#0]
00002c  f7fffffe          BL       delay_ms
000030  1c6d              ADDS     r5,r5,#1
000032  4803              LDR      r0,|L20.64|
000034  b2ad              UXTH     r5,r5                 ;1325
000036  4285              CMP      r5,r0                 ;1325
000038  d3e4              BCC      |L20.4|
;;;1347   	}
;;;1348   }
00003a  bdf8              POP      {r3-r7,pc}
;;;1349   
                          ENDP

                  |L20.60|
                          DCD      ||.constdata||
                  |L20.64|
                          DCD      0x000002fe

                          AREA ||i.getAlternateColors||, CODE, READONLY, ALIGN=1

                  getAlternateColors PROC
;;;1420   
;;;1421   void getAlternateColors(uint16_t time, uint16_t steps,
000000  b5ff              PUSH     {r0-r7,lr}
;;;1422   		uint8_t redA, uint8_t greenA, uint8_t blueA, 
;;;1423   		uint8_t redB, uint8_t greenB, uint8_t blueB) 
;;;1424   {
000002  b083              SUB      sp,sp,#0xc
;;;1425   	uint16_t i = 0;
;;;1426   	signed long  deltaRed, deltaGreen, deltaBlue;
;;;1427   
;;;1428   	deltaRed = ((signed long) redB - (signed long) redA) / steps;
000004  980d              LDR      r0,[sp,#0x34]
000006  4617              MOV      r7,r2                 ;1424
000008  461e              MOV      r6,r3                 ;1424
00000a  2400              MOVS     r4,#0                 ;1425
00000c  1bc0              SUBS     r0,r0,r7
00000e  9d0e              LDR      r5,[sp,#0x38]
000010  9904              LDR      r1,[sp,#0x10]
000012  f7fffffe          BL       __aeabi_idivmod
;;;1429   	deltaGreen = ((signed long) greenB - (signed long) greenA) / steps;
000016  9001              STR      r0,[sp,#4]
000018  1ba8              SUBS     r0,r5,r6
00001a  9904              LDR      r1,[sp,#0x10]
00001c  f7fffffe          BL       __aeabi_idivmod
;;;1430   	deltaBlue = ((signed long) blueB - (signed long) blueA) / steps;
000020  9000              STR      r0,[sp,#0]
000022  990c              LDR      r1,[sp,#0x30]
000024  980f              LDR      r0,[sp,#0x3c]
000026  1a40              SUBS     r0,r0,r1
000028  9904              LDR      r1,[sp,#0x10]
00002a  f7fffffe          BL       __aeabi_idivmod
00002e  4605              MOV      r5,r0
;;;1431   
;;;1432   	for (i = 0; i < steps; i++) 
000030  e019              B        |L21.102|
                  |L21.50|
000032  4620              MOV      r0,r4
;;;1433   	{
;;;1434   		setLED_ColorWipe(redA + i * deltaRed, greenA + i * deltaGreen,	+blueA + i * deltaBlue);
000034  990c              LDR      r1,[sp,#0x30]
000036  4368              MULS     r0,r5,r0
000038  1840              ADDS     r0,r0,r1
00003a  b2c2              UXTB     r2,r0
00003c  9800              LDR      r0,[sp,#0]
00003e  4360              MULS     r0,r4,r0
000040  1980              ADDS     r0,r0,r6
000042  b2c1              UXTB     r1,r0
000044  9801              LDR      r0,[sp,#4]
000046  4360              MULS     r0,r4,r0
000048  19c0              ADDS     r0,r0,r7
00004a  b2c0              UXTB     r0,r0
00004c  f7fffffe          BL       setLED_ColorWipe
;;;1435   
;;;1436   		delay(time / steps);
000050  9904              LDR      r1,[sp,#0x10]
000052  9803              LDR      r0,[sp,#0xc]
000054  f7fffffe          BL       __aeabi_uidivmod
                  |L21.88|
000058  4601              MOV      r1,r0
00005a  1e40              SUBS     r0,r0,#1
00005c  b280              UXTH     r0,r0
00005e  2900              CMP      r1,#0
000060  d1fa              BNE      |L21.88|
000062  1c64              ADDS     r4,r4,#1
000064  b2a4              UXTH     r4,r4                 ;1432
                  |L21.102|
000066  9804              LDR      r0,[sp,#0x10]         ;1432
000068  4284              CMP      r4,r0                 ;1432
00006a  d3e2              BCC      |L21.50|
00006c  1e40              SUBS     r0,r0,#1              ;1432
;;;1437   	}
;;;1438   	for (i = steps - 1; i > 0; i--) 
00006e  b284              UXTH     r4,r0
000070  e019              B        |L21.166|
                  |L21.114|
000072  4620              MOV      r0,r4
;;;1439   	{
;;;1440   		setLED_ColorWipe(redA + i * deltaRed, greenA + i * deltaGreen,	+blueA + i * deltaBlue);
000074  990c              LDR      r1,[sp,#0x30]
000076  4368              MULS     r0,r5,r0
000078  1840              ADDS     r0,r0,r1
00007a  b2c2              UXTB     r2,r0
00007c  9800              LDR      r0,[sp,#0]
00007e  4360              MULS     r0,r4,r0
000080  1980              ADDS     r0,r0,r6
000082  b2c1              UXTB     r1,r0
000084  9801              LDR      r0,[sp,#4]
000086  4360              MULS     r0,r4,r0
000088  19c0              ADDS     r0,r0,r7
00008a  b2c0              UXTB     r0,r0
00008c  f7fffffe          BL       setLED_ColorWipe
;;;1441   		
;;;1442   		delay(time / steps);
000090  9904              LDR      r1,[sp,#0x10]
000092  9803              LDR      r0,[sp,#0xc]
000094  f7fffffe          BL       __aeabi_uidivmod
                  |L21.152|
000098  4601              MOV      r1,r0
00009a  1e40              SUBS     r0,r0,#1
00009c  b280              UXTH     r0,r0
00009e  2900              CMP      r1,#0
0000a0  d1fa              BNE      |L21.152|
0000a2  1e64              SUBS     r4,r4,#1
0000a4  b2a4              UXTH     r4,r4                 ;1438
                  |L21.166|
0000a6  2c00              CMP      r4,#0                 ;1438
0000a8  d1e3              BNE      |L21.114|
;;;1443   	}
;;;1444   }
0000aa  b007              ADD      sp,sp,#0x1c
0000ac  bdf0              POP      {r4-r7,pc}
;;;1445   
                          ENDP


                          AREA ||i.getBreathing||, CODE, READONLY, ALIGN=2

                  getBreathing PROC
;;;1578   
;;;1579   void getBreathing(uint16_t time)
000000  b5f1              PUSH     {r0,r4-r7,lr}
;;;1580   {
;;;1581   //	uint8_t i = 0;
;;;1582   	uint16_t j = 0;
;;;1583   	static uint8_t flag = 1;
;;;1584   	uint8_t led = 0;
;;;1585   	uint16_t index = 0 ;
;;;1586   	uint8_t red,green,blue = 0;
;;;1587   
;;;1588   	red = colorsFull[index][0];
000002  4819              LDR      r0,|L22.104|
000004  b084              SUB      sp,sp,#0x10           ;1580
000006  7801              LDRB     r1,[r0,#0]
;;;1589   	green = colorsFull[index][1];
000008  9102              STR      r1,[sp,#8]
00000a  7841              LDRB     r1,[r0,#1]
;;;1590   	blue = colorsFull[index][2];
00000c  9101              STR      r1,[sp,#4]
00000e  7880              LDRB     r0,[r0,#2]
;;;1591   	
;;;1592   	if (flag)
000010  4d16              LDR      r5,|L22.108|
000012  2400              MOVS     r4,#0                 ;1584
000014  9000              STR      r0,[sp,#0]
000016  7a28              LDRB     r0,[r5,#8]  ; flag
000018  4626              MOV      r6,r4                 ;1585
00001a  4627              MOV      r7,r4                 ;1588
00001c  2800              CMP      r0,#0
00001e  d012              BEQ      |L22.70|
                  |L22.32|
;;;1593   	{
;;;1594   		for (led = 0; led < LED_NUM; led++)
;;;1595   		{
;;;1596   			setLED_Color(led,red,green,blue);			
000020  4620              MOV      r0,r4
000022  9b00              LDR      r3,[sp,#0]
000024  9a01              LDR      r2,[sp,#4]
000026  9902              LDR      r1,[sp,#8]
000028  f7fffffe          BL       setLED_Color
00002c  1c64              ADDS     r4,r4,#1
00002e  b2e4              UXTB     r4,r4                 ;1594
000030  2c12              CMP      r4,#0x12              ;1594
000032  d3f5              BCC      |L22.32|
;;;1597   		}
;;;1598   		setLED_Display(LED_DATA_LEN);
000034  2036              MOVS     r0,#0x36
000036  f7fffffe          BL       setLED_Display
;;;1599   		delay_ms(time);	
00003a  9804              LDR      r0,[sp,#0x10]
00003c  f7fffffe          BL       delay_ms
;;;1600   		flag = 0;
000040  722f              STRB     r7,[r5,#8]
                  |L22.66|
;;;1601   	}
;;;1602   	else
;;;1603   	{
;;;1604   		for (j=0xFF;j>0x7F;j--)
;;;1605   		{
;;;1606   			setLED_ColorWipe(j,j,j);
;;;1607   			delay_ms(time);
;;;1608   		}
;;;1609   		flag = 1;
;;;1610   	}
;;;1611   
;;;1612   	if ((index++) > COLORTALBE_NUM)
;;;1613   	{
;;;1614   		index = 0;
;;;1615   	}
;;;1616   	
;;;1617   }
000042  b005              ADD      sp,sp,#0x14
000044  bdf0              POP      {r4-r7,pc}
                  |L22.70|
000046  24ff              MOVS     r4,#0xff              ;1604
                  |L22.72|
000048  b2e2              UXTB     r2,r4                 ;1606
00004a  b2e1              UXTB     r1,r4                 ;1606
00004c  b2e0              UXTB     r0,r4                 ;1606
00004e  f7fffffe          BL       setLED_ColorWipe
000052  9804              LDR      r0,[sp,#0x10]         ;1607
000054  f7fffffe          BL       delay_ms
000058  1e64              SUBS     r4,r4,#1              ;1607
00005a  b2a4              UXTH     r4,r4                 ;1604
00005c  2c7f              CMP      r4,#0x7f              ;1604
00005e  d8f3              BHI      |L22.72|
000060  2001              MOVS     r0,#1                 ;1609
000062  7228              STRB     r0,[r5,#8]            ;1609
000064  e7ed              B        |L22.66|
;;;1618   
                          ENDP

000066  0000              DCW      0x0000
                  |L22.104|
                          DCD      ||.constdata||
                  |L22.108|
                          DCD      ||.data||

                          AREA ||i.getCircularRing||, CODE, READONLY, ALIGN=1

                  getCircularRing PROC
;;;1251   
;;;1252   void getCircularRing(uint16_t time, uint8_t red, uint8_t green,uint8_t blue) 
000000  b5ff              PUSH     {r0-r7,lr}
;;;1253   {
000002  b081              SUB      sp,sp,#4
000004  461d              MOV      r5,r3
000006  4616              MOV      r6,r2
000008  460f              MOV      r7,r1
;;;1254   	uint8_t index = 0 ;
00000a  2400              MOVS     r4,#0
                  |L23.12|
;;;1255   
;;;1256   	for (index = 0; index < LED_NUM; index++) 
;;;1257   	{
;;;1258   		setLED_ColorWipe(0, 0, 0);
00000c  2200              MOVS     r2,#0
00000e  4611              MOV      r1,r2
000010  4610              MOV      r0,r2
000012  f7fffffe          BL       setLED_ColorWipe
;;;1259   		
;;;1260   		setLED_Color(index, red, green, blue);
000016  462b              MOV      r3,r5
000018  4632              MOV      r2,r6
00001a  4639              MOV      r1,r7
00001c  4620              MOV      r0,r4
00001e  f7fffffe          BL       setLED_Color
;;;1261   
;;;1262       	setLED_Display(LED_DATA_LEN);
000022  2036              MOVS     r0,#0x36
000024  f7fffffe          BL       setLED_Display
;;;1263   
;;;1264   		delay_ms(time);
000028  9801              LDR      r0,[sp,#4]
00002a  f7fffffe          BL       delay_ms
00002e  1c64              ADDS     r4,r4,#1
000030  b2e4              UXTB     r4,r4                 ;1256
000032  2c12              CMP      r4,#0x12              ;1256
000034  d3ea              BCC      |L23.12|
;;;1265   	}
;;;1266   }
000036  b005              ADD      sp,sp,#0x14
000038  bdf0              POP      {r4-r7,pc}
;;;1267   
                          ENDP


                          AREA ||i.getColorWheel||, CODE, READONLY, ALIGN=2

                  getColorWheel PROC
;;;1349   
;;;1350   void getColorWheel(uint16_t time) 
000000  b5f1              PUSH     {r0,r4-r7,lr}
;;;1351   {
;;;1352   	uint16_t index = 0 ;
000002  2500              MOVS     r5,#0
;;;1353   	uint8_t led = 0, colorIndex = 0;
;;;1354   
;;;1355   	for (led = 0; led < LED_NUM; led++) 
;;;1356   	{
;;;1357   		colorIndex = (index + led * (COLORTALBE_NUM / LED_NUM)) % COLORTALBE_NUM;
000004  4e11              LDR      r6,|L24.76|
;;;1358   		
;;;1359   		setLED_Color(led, colorsFull[colorIndex][0],	colorsFull[colorIndex][1], colorsFull[colorIndex][2]);
000006  4f12              LDR      r7,|L24.80|
000008  462c              MOV      r4,r5                 ;1353
                  |L24.10|
00000a  202a              MOVS     r0,#0x2a              ;1357
00000c  4360              MULS     r0,r4,r0              ;1357
00000e  1940              ADDS     r0,r0,r5              ;1357
000010  4631              MOV      r1,r6                 ;1357
000012  f7fffffe          BL       __aeabi_uidivmod
000016  b2c8              UXTB     r0,r1                 ;1357
000018  0041              LSLS     r1,r0,#1
00001a  1840              ADDS     r0,r0,r1
00001c  19c1              ADDS     r1,r0,r7
00001e  788b              LDRB     r3,[r1,#2]
000020  784a              LDRB     r2,[r1,#1]
000022  5c39              LDRB     r1,[r7,r0]
000024  4620              MOV      r0,r4
000026  f7fffffe          BL       setLED_Color
;;;1360   
;;;1361   		setLED_Display(LED_DATA_LEN);
00002a  2036              MOVS     r0,#0x36
00002c  f7fffffe          BL       setLED_Display
;;;1362   
;;;1363   		delay_ms(time);	
000030  9800              LDR      r0,[sp,#0]
000032  f7fffffe          BL       delay_ms
000036  352a              ADDS     r5,r5,#0x2a
;;;1364   
;;;1365   		index += (COLORTALBE_NUM / LED_NUM);
000038  b2a8              UXTH     r0,r5
;;;1366   		index %= COLORTALBE_NUM;		
00003a  4631              MOV      r1,r6
00003c  f7fffffe          BL       __aeabi_uidivmod
000040  1c64              ADDS     r4,r4,#1
000042  b2e4              UXTB     r4,r4                 ;1355
000044  460d              MOV      r5,r1
000046  2c12              CMP      r4,#0x12              ;1355
000048  d3df              BCC      |L24.10|
;;;1367   	}
;;;1368   }
00004a  bdf8              POP      {r3-r7,pc}
;;;1369   #endif /*ENABLE_EXTRA_DEMO*/
                          ENDP

                  |L24.76|
                          DCD      0x000002fe
                  |L24.80|
                          DCD      ||.constdata||

                          AREA ||i.getFromAToB||, CODE, READONLY, ALIGN=1

                  getFromAToB PROC
;;;1232   
;;;1233   void getFromAToB(uint16_t time, uint16_t steps, 
000000  b5ff              PUSH     {r0-r7,lr}
;;;1234   		uint8_t redA,	uint8_t greenA, uint8_t blueA, 
;;;1235   		uint8_t redB, uint8_t greenB, uint8_t blueB) 
;;;1236   {
000002  b083              SUB      sp,sp,#0xc
;;;1237   	uint16_t i = 0;
;;;1238   	signed int deltaRed, deltaGreen, deltaBlue;
;;;1239   
;;;1240   	deltaRed = ((signed long) redB - (signed long) redA) / (signed long) steps;
000004  980d              LDR      r0,[sp,#0x34]
000006  4617              MOV      r7,r2                 ;1236
000008  461e              MOV      r6,r3                 ;1236
00000a  2400              MOVS     r4,#0                 ;1237
00000c  1bc0              SUBS     r0,r0,r7
00000e  9d0e              LDR      r5,[sp,#0x38]
000010  9904              LDR      r1,[sp,#0x10]
000012  f7fffffe          BL       __aeabi_idivmod
;;;1241   	deltaGreen = ((signed long) greenB - (signed long) greenA) / (signed long) steps;
000016  9001              STR      r0,[sp,#4]
000018  1ba8              SUBS     r0,r5,r6
00001a  9904              LDR      r1,[sp,#0x10]
00001c  f7fffffe          BL       __aeabi_idivmod
;;;1242   	deltaBlue = ((signed long) blueB - (signed long) blueA) / (signed long) steps;
000020  9000              STR      r0,[sp,#0]
000022  990c              LDR      r1,[sp,#0x30]
000024  980f              LDR      r0,[sp,#0x3c]
000026  1a40              SUBS     r0,r0,r1
000028  9904              LDR      r1,[sp,#0x10]
00002a  f7fffffe          BL       __aeabi_idivmod
00002e  4605              MOV      r5,r0
;;;1243   
;;;1244   	for (i = 0; i < steps; i++) 
000030  e019              B        |L25.102|
                  |L25.50|
000032  4620              MOV      r0,r4
;;;1245   	{
;;;1246   		setLED_ColorWipe(redA + i * deltaRed, greenA + i * deltaGreen,	+blueA + i * deltaBlue);
000034  990c              LDR      r1,[sp,#0x30]
000036  4368              MULS     r0,r5,r0
000038  1840              ADDS     r0,r0,r1
00003a  b2c2              UXTB     r2,r0
00003c  9800              LDR      r0,[sp,#0]
00003e  4360              MULS     r0,r4,r0
000040  1980              ADDS     r0,r0,r6
000042  b2c1              UXTB     r1,r0
000044  9801              LDR      r0,[sp,#4]
000046  4360              MULS     r0,r4,r0
000048  19c0              ADDS     r0,r0,r7
00004a  b2c0              UXTB     r0,r0
00004c  f7fffffe          BL       setLED_ColorWipe
;;;1247   	
;;;1248   		delay(time / steps);
000050  9904              LDR      r1,[sp,#0x10]
000052  9803              LDR      r0,[sp,#0xc]
000054  f7fffffe          BL       __aeabi_uidivmod
                  |L25.88|
000058  4601              MOV      r1,r0
00005a  1e40              SUBS     r0,r0,#1
00005c  b280              UXTH     r0,r0
00005e  2900              CMP      r1,#0
000060  d1fa              BNE      |L25.88|
000062  1c64              ADDS     r4,r4,#1
000064  b2a4              UXTH     r4,r4                 ;1244
                  |L25.102|
000066  9804              LDR      r0,[sp,#0x10]         ;1244
000068  4284              CMP      r4,r0                 ;1244
00006a  d3e2              BCC      |L25.50|
;;;1249   	}
;;;1250   }
00006c  b007              ADD      sp,sp,#0x1c
00006e  bdf0              POP      {r4-r7,pc}
;;;1251   
                          ENDP


                          AREA ||i.getFullEmpty||, CODE, READONLY, ALIGN=1

                  getFullEmpty PROC
;;;1395   
;;;1396   void getFullEmpty(uint16_t time, uint8_t red, uint8_t green,uint8_t blue) 
000000  b5ff              PUSH     {r0-r7,lr}
;;;1397   {
;;;1398   	uint8_t index = 0 ;
000002  2400              MOVS     r4,#0
000004  4616              MOV      r6,r2                 ;1397
000006  460f              MOV      r7,r1                 ;1397
000008  b081              SUB      sp,sp,#4              ;1397
00000a  461d              MOV      r5,r3                 ;1397
;;;1399   
;;;1400   	setLED_ColorWipe(0, 0, 0);
00000c  4622              MOV      r2,r4
00000e  4621              MOV      r1,r4
000010  4620              MOV      r0,r4
000012  f7fffffe          BL       setLED_ColorWipe
                  |L26.22|
;;;1401   
;;;1402   	for (index = 0; index < LED_NUM; index++) 
;;;1403   	{
;;;1404   		setLED_Color(index, red, green, blue);
000016  462b              MOV      r3,r5
000018  4632              MOV      r2,r6
00001a  4639              MOV      r1,r7
00001c  4620              MOV      r0,r4
00001e  f7fffffe          BL       setLED_Color
;;;1405   
;;;1406   		setLED_Display(LED_DATA_LEN);
000022  2036              MOVS     r0,#0x36
000024  f7fffffe          BL       setLED_Display
;;;1407   		
;;;1408   		delay_ms(time);
000028  9801              LDR      r0,[sp,#4]
00002a  f7fffffe          BL       delay_ms
00002e  1c64              ADDS     r4,r4,#1
000030  b2e4              UXTB     r4,r4                 ;1402
000032  2c12              CMP      r4,#0x12              ;1402
000034  d3ef              BCC      |L26.22|
;;;1409   	}
;;;1410   
;;;1411   	for (index = 0; index < LED_NUM; index++) 
000036  2400              MOVS     r4,#0
                  |L26.56|
;;;1412   	{
;;;1413   		setLED_Color(index,0, 0, 0);
000038  2300              MOVS     r3,#0
00003a  461a              MOV      r2,r3
00003c  4619              MOV      r1,r3
00003e  4620              MOV      r0,r4
000040  f7fffffe          BL       setLED_Color
;;;1414   
;;;1415   		setLED_Display(LED_DATA_LEN);
000044  2036              MOVS     r0,#0x36
000046  f7fffffe          BL       setLED_Display
;;;1416   		
;;;1417   		delay_ms(time);
00004a  9801              LDR      r0,[sp,#4]
00004c  f7fffffe          BL       delay_ms
000050  1c64              ADDS     r4,r4,#1
000052  b2e4              UXTB     r4,r4                 ;1411
000054  2c12              CMP      r4,#0x12              ;1411
000056  d3ef              BCC      |L26.56|
;;;1418   	}
;;;1419   }
000058  b005              ADD      sp,sp,#0x14
00005a  bdf0              POP      {r4-r7,pc}
;;;1420   
                          ENDP


                          AREA ||i.getHeartBeat||, CODE, READONLY, ALIGN=1

                  getHeartBeat PROC
;;;1268   // the interval should be in the 300-1000 range for best visual effect
;;;1269   void getHeartBeat(uint16_t time, uint8_t red, uint8_t green,uint8_t blue) 
000000  b5ff              PUSH     {r0-r7,lr}
;;;1270   {
000002  b085              SUB      sp,sp,#0x14
;;;1271   	uint8_t redInc, greenInc, blueInc;
;;;1272   	uint8_t maxRed, maxGreen, maxBlue;
;;;1273   
;;;1274   	uint8_t index = 0 ;
;;;1275   	uint8_t beatcnt = 35 ;
000004  2023              MOVS     r0,#0x23
;;;1276   	
;;;1277   	redInc = red / HEARTBEAT_STEPS;
000006  09cf              LSRS     r7,r1,#7
;;;1278   	greenInc = green / HEARTBEAT_STEPS;
;;;1279   	blueInc = blue / HEARTBEAT_STEPS;
;;;1280   
;;;1281   	maxRed = redInc * (HEARTBEAT_STEPS - 1);
000008  9000              STR      r0,[sp,#0]
00000a  01f8              LSLS     r0,r7,#7
00000c  09d6              LSRS     r6,r2,#7              ;1278
00000e  1bc0              SUBS     r0,r0,r7
000010  b2c0              UXTB     r0,r0
;;;1282   	maxGreen = greenInc * (HEARTBEAT_STEPS - 1);
000012  9003              STR      r0,[sp,#0xc]
000014  01f0              LSLS     r0,r6,#7
000016  1b80              SUBS     r0,r0,r6
000018  b2c0              UXTB     r0,r0
00001a  09dd              LSRS     r5,r3,#7              ;1279
;;;1283   	maxBlue = blueInc * (HEARTBEAT_STEPS - 1);
00001c  9002              STR      r0,[sp,#8]
00001e  01e8              LSLS     r0,r5,#7
000020  1b40              SUBS     r0,r0,r5
000022  b2c0              UXTB     r0,r0
;;;1284   
;;;1285   	setLED_ColorWipe(0, 0, 0);
000024  2200              MOVS     r2,#0
000026  9001              STR      r0,[sp,#4]
000028  2400              MOVS     r4,#0                 ;1274
00002a  4611              MOV      r1,r2
00002c  4610              MOV      r0,r2
00002e  f7fffffe          BL       setLED_ColorWipe
000032  9800              LDR      r0,[sp,#0]            ;1275
000034  4601              MOV      r1,r0                 ;1275
000036  310f              ADDS     r1,r1,#0xf            ;1275
;;;1286   
;;;1287   	// first stroke
;;;1288   	for (index = 0; index < HEARTBEAT_STEPS; index++) 
;;;1289   	{
;;;1290   		setLED_ColorWipe(index * redInc, index * greenInc, index * blueInc);
;;;1291   	
;;;1292   		delay(time / (beatcnt+15));	//50
000038  9805              LDR      r0,[sp,#0x14]
00003a  f7fffffe          BL       __aeabi_uidivmod
00003e  9004              STR      r0,[sp,#0x10]
                  |L27.64|
000040  4620              MOV      r0,r4
000042  4368              MULS     r0,r5,r0              ;1290
000044  b2c2              UXTB     r2,r0                 ;1290
000046  4620              MOV      r0,r4                 ;1290
000048  4370              MULS     r0,r6,r0              ;1290
00004a  b2c1              UXTB     r1,r0                 ;1290
00004c  4620              MOV      r0,r4                 ;1290
00004e  4378              MULS     r0,r7,r0              ;1290
000050  b2c0              UXTB     r0,r0                 ;1290
000052  f7fffffe          BL       setLED_ColorWipe
000056  9804              LDR      r0,[sp,#0x10]         ;1290
                  |L27.88|
000058  4601              MOV      r1,r0                 ;1290
00005a  1e40              SUBS     r0,r0,#1              ;1290
00005c  b280              UXTH     r0,r0                 ;1290
00005e  2900              CMP      r1,#0                 ;1290
000060  d1fa              BNE      |L27.88|
000062  1c64              ADDS     r4,r4,#1              ;1290
000064  b2e4              UXTB     r4,r4                 ;1288
000066  2c80              CMP      r4,#0x80              ;1288
000068  d3ea              BCC      |L27.64|
00006a  9900              LDR      r1,[sp,#0]            ;1270
;;;1293   	}
;;;1294   	for (index = 0; index < HEARTBEAT_STEPS; index++) 
00006c  2400              MOVS     r4,#0
00006e  310a              ADDS     r1,r1,#0xa            ;1270
;;;1295   	{
;;;1296   		setLED_ColorWipe(maxRed - index * redInc, maxGreen - index * greenInc,maxBlue - index * blueInc);
;;;1297   		
;;;1298   		delay(time / (beatcnt+10));	//45
000070  9805              LDR      r0,[sp,#0x14]
000072  f7fffffe          BL       __aeabi_uidivmod
000076  9004              STR      r0,[sp,#0x10]
                  |L27.120|
000078  4620              MOV      r0,r4
00007a  9901              LDR      r1,[sp,#4]            ;1296
00007c  4368              MULS     r0,r5,r0              ;1296
00007e  1a08              SUBS     r0,r1,r0              ;1296
000080  b2c2              UXTB     r2,r0                 ;1296
000082  4620              MOV      r0,r4                 ;1296
000084  9902              LDR      r1,[sp,#8]            ;1296
000086  4370              MULS     r0,r6,r0              ;1296
000088  1a08              SUBS     r0,r1,r0              ;1296
00008a  b2c1              UXTB     r1,r0                 ;1296
00008c  4620              MOV      r0,r4                 ;1296
00008e  9b03              LDR      r3,[sp,#0xc]          ;1296
000090  4378              MULS     r0,r7,r0              ;1296
000092  1a18              SUBS     r0,r3,r0              ;1296
000094  b2c0              UXTB     r0,r0                 ;1296
000096  f7fffffe          BL       setLED_ColorWipe
00009a  9804              LDR      r0,[sp,#0x10]         ;1296
                  |L27.156|
00009c  4601              MOV      r1,r0                 ;1296
00009e  1e40              SUBS     r0,r0,#1              ;1296
0000a0  b280              UXTH     r0,r0                 ;1296
0000a2  2900              CMP      r1,#0                 ;1296
0000a4  d1fa              BNE      |L27.156|
0000a6  1c64              ADDS     r4,r4,#1              ;1296
0000a8  b2e4              UXTB     r4,r4                 ;1294
0000aa  2c80              CMP      r4,#0x80              ;1294
0000ac  d3e4              BCC      |L27.120|
0000ae  9900              LDR      r1,[sp,#0]            ;1270
;;;1299   	}
;;;1300   	
;;;1301   	// second stroke
;;;1302   	for (index = 0; index < HEARTBEAT_STEPS; index++) 
0000b0  2400              MOVS     r4,#0
0000b2  1d49              ADDS     r1,r1,#5              ;1270
;;;1303   	{
;;;1304   		setLED_ColorWipe(index * redInc, index * greenInc, index * blueInc);
;;;1305   		
;;;1306   		delay(time / (beatcnt+5));	//40
0000b4  9805              LDR      r0,[sp,#0x14]
0000b6  f7fffffe          BL       __aeabi_uidivmod
0000ba  9004              STR      r0,[sp,#0x10]
                  |L27.188|
0000bc  4620              MOV      r0,r4
0000be  4368              MULS     r0,r5,r0              ;1304
0000c0  b2c2              UXTB     r2,r0                 ;1304
0000c2  4620              MOV      r0,r4                 ;1304
0000c4  4370              MULS     r0,r6,r0              ;1304
0000c6  b2c1              UXTB     r1,r0                 ;1304
0000c8  4620              MOV      r0,r4                 ;1304
0000ca  4378              MULS     r0,r7,r0              ;1304
0000cc  b2c0              UXTB     r0,r0                 ;1304
0000ce  f7fffffe          BL       setLED_ColorWipe
0000d2  9804              LDR      r0,[sp,#0x10]         ;1304
                  |L27.212|
0000d4  4601              MOV      r1,r0                 ;1304
0000d6  1e40              SUBS     r0,r0,#1              ;1304
0000d8  b280              UXTH     r0,r0                 ;1304
0000da  2900              CMP      r1,#0                 ;1304
0000dc  d1fa              BNE      |L27.212|
0000de  1c64              ADDS     r4,r4,#1              ;1304
0000e0  b2e4              UXTB     r4,r4                 ;1302
0000e2  2c80              CMP      r4,#0x80              ;1302
0000e4  d3ea              BCC      |L27.188|
;;;1307   	}
;;;1308   	for (index = 0; index < HEARTBEAT_STEPS; index++) 
0000e6  2400              MOVS     r4,#0
;;;1309   	{
;;;1310   		setLED_ColorWipe(maxRed - index * redInc, maxGreen - index * greenInc,maxBlue - index * blueInc);
;;;1311   		
;;;1312   		delay(time / (beatcnt));	//35
0000e8  9900              LDR      r1,[sp,#0]
0000ea  9805              LDR      r0,[sp,#0x14]
0000ec  f7fffffe          BL       __aeabi_uidivmod
0000f0  9000              STR      r0,[sp,#0]
                  |L27.242|
0000f2  4620              MOV      r0,r4
0000f4  9901              LDR      r1,[sp,#4]            ;1310
0000f6  4368              MULS     r0,r5,r0              ;1310
0000f8  1a08              SUBS     r0,r1,r0              ;1310
0000fa  b2c2              UXTB     r2,r0                 ;1310
0000fc  4620              MOV      r0,r4                 ;1310
0000fe  9902              LDR      r1,[sp,#8]            ;1310
000100  4370              MULS     r0,r6,r0              ;1310
000102  1a08              SUBS     r0,r1,r0              ;1310
000104  b2c1              UXTB     r1,r0                 ;1310
000106  4620              MOV      r0,r4                 ;1310
000108  9b03              LDR      r3,[sp,#0xc]          ;1310
00010a  4378              MULS     r0,r7,r0              ;1310
00010c  1a18              SUBS     r0,r3,r0              ;1310
00010e  b2c0              UXTB     r0,r0                 ;1310
000110  f7fffffe          BL       setLED_ColorWipe
000114  9800              LDR      r0,[sp,#0]            ;1310
                  |L27.278|
000116  4601              MOV      r1,r0                 ;1310
000118  1e40              SUBS     r0,r0,#1              ;1310
00011a  b280              UXTH     r0,r0                 ;1310
00011c  2900              CMP      r1,#0                 ;1310
00011e  d1fa              BNE      |L27.278|
000120  1c64              ADDS     r4,r4,#1              ;1310
000122  b2e4              UXTB     r4,r4                 ;1308
000124  2c80              CMP      r4,#0x80              ;1308
000126  d3e4              BCC      |L27.242|
;;;1313   	}
;;;1314   	// relax..
;;;1315   	delay_ms(time);
000128  9805              LDR      r0,[sp,#0x14]
00012a  f7fffffe          BL       delay_ms
;;;1316   
;;;1317   }
00012e  b009              ADD      sp,sp,#0x24
000130  bdf0              POP      {r4-r7,pc}
;;;1318   
                          ENDP


                          AREA ||i.getPatternMove||, CODE, READONLY, ALIGN=1

                  getPatternMove PROC
;;;1370   
;;;1371   void getPatternMove(uint16_t time, uint16_t parts, uint8_t red,uint8_t green, uint8_t blue) 
000000  b5ff              PUSH     {r0-r7,lr}
;;;1372   {
000002  b081              SUB      sp,sp,#4
000004  460f              MOV      r7,r1
;;;1373   	uint8_t index = 0 ;
000006  2500              MOVS     r5,#0
;;;1374   	uint16_t indexStep;
;;;1375   	uint16_t i;
;;;1376   
;;;1377   	indexStep = LED_NUM / parts;
000008  2012              MOVS     r0,#0x12
00000a  f7fffffe          BL       __aeabi_uidivmod
;;;1378   
;;;1379   	setLED_ColorWipe(0, 0, 0);
00000e  2200              MOVS     r2,#0
000010  4606              MOV      r6,r0                 ;1377
000012  4611              MOV      r1,r2
000014  4610              MOV      r0,r2
000016  f7fffffe          BL       setLED_ColorWipe
                  |L28.26|
;;;1380   
;;;1381   	for (index = 0; index < LED_NUM; index++) 
;;;1382   	{
;;;1383   		setLED_ColorWipe(0, 0, 0);
00001a  2200              MOVS     r2,#0
00001c  4611              MOV      r1,r2
00001e  4610              MOV      r0,r2
000020  f7fffffe          BL       setLED_ColorWipe
;;;1384   		
;;;1385   		for (i = 0; i < parts; i++)
000024  2400              MOVS     r4,#0
000026  e00a              B        |L28.62|
                  |L28.40|
000028  4620              MOV      r0,r4
;;;1386   		{
;;;1387   			setLED_Color(index + i * indexStep, red, green, blue);
00002a  4370              MULS     r0,r6,r0
00002c  1940              ADDS     r0,r0,r5
00002e  b2c0              UXTB     r0,r0
000030  9b0a              LDR      r3,[sp,#0x28]
000032  9a04              LDR      r2,[sp,#0x10]
000034  9903              LDR      r1,[sp,#0xc]
000036  f7fffffe          BL       setLED_Color
00003a  1c64              ADDS     r4,r4,#1
00003c  b2a4              UXTH     r4,r4                 ;1385
                  |L28.62|
00003e  42bc              CMP      r4,r7                 ;1385
000040  d3f2              BCC      |L28.40|
;;;1388   		}
;;;1389   
;;;1390   		setLED_Display(LED_DATA_LEN);
000042  2036              MOVS     r0,#0x36
000044  f7fffffe          BL       setLED_Display
;;;1391   		
;;;1392   		delay_ms(time);
000048  9801              LDR      r0,[sp,#4]
00004a  f7fffffe          BL       delay_ms
00004e  1c6d              ADDS     r5,r5,#1
000050  b2ed              UXTB     r5,r5                 ;1381
000052  2d12              CMP      r5,#0x12              ;1381
000054  d3e1              BCC      |L28.26|
;;;1393   	}	
;;;1394   }
000056  b005              ADD      sp,sp,#0x14
000058  bdf0              POP      {r4-r7,pc}
;;;1395   
                          ENDP


                          AREA ||i.getRGBSequence||, CODE, READONLY, ALIGN=2

                  getRGBSequence PROC
;;;1446   
;;;1447   void getRGBSequence(uint16_t time) 
000000  b5f1              PUSH     {r0,r4-r7,lr}
;;;1448   {
;;;1449   	static uint8_t intensity = 0;
;;;1450   	static uint8_t sign = 0;
;;;1451   
;;;1452       uint8_t i = 0;
;;;1453       if (sign) 
000002  4921              LDR      r1,|L29.136|
000004  2400              MOVS     r4,#0                 ;1452
000006  79ca              LDRB     r2,[r1,#7]  ; sign
000008  4608              MOV      r0,r1
;;;1454   	{
;;;1455           intensity++;
00000a  7980              LDRB     r0,[r0,#6]
00000c  2a00              CMP      r2,#0                 ;1453
00000e  d006              BEQ      |L29.30|
000010  1c40              ADDS     r0,r0,#1              ;1448
000012  b2c0              UXTB     r0,r0
000014  7188              STRB     r0,[r1,#6]
;;;1456           if (intensity == 255) 
000016  28ff              CMP      r0,#0xff
000018  d108              BNE      |L29.44|
;;;1457               sign = 0; 
00001a  2000              MOVS     r0,#0
00001c  e005              B        |L29.42|
                  |L29.30|
00001e  1e40              SUBS     r0,r0,#1
;;;1458       }
;;;1459       else 
;;;1460   	{
;;;1461           intensity--;
000020  0600              LSLS     r0,r0,#24
000022  0e00              LSRS     r0,r0,#24
000024  7188              STRB     r0,[r1,#6]
;;;1462           if (intensity == 0)
000026  d101              BNE      |L29.44|
;;;1463               sign = 1;
000028  2001              MOVS     r0,#1
                  |L29.42|
00002a  71c8              STRB     r0,[r1,#7]            ;1457
                  |L29.44|
;;;1464       }
;;;1465   
;;;1466       for (i = 0; i < LED_NUM; i++) 
;;;1467   	{
;;;1468           setLED_Color(i, intensity*((i%3)%2),intensity*(((i+1)%3)%2),intensity*(((i+2)%3)%2));
00002c  2103              MOVS     r1,#3
00002e  1ca0              ADDS     r0,r4,#2
000030  f7fffffe          BL       __aeabi_uidivmod
000034  4814              LDR      r0,|L29.136|
000036  07c9              LSLS     r1,r1,#31
000038  7985              LDRB     r5,[r0,#6]  ; intensity
00003a  0fc9              LSRS     r1,r1,#31
00003c  4369              MULS     r1,r5,r1
00003e  b2cf              UXTB     r7,r1
000040  2103              MOVS     r1,#3
000042  1c60              ADDS     r0,r4,#1
000044  f7fffffe          BL       __aeabi_uidivmod
000048  07c8              LSLS     r0,r1,#31
00004a  0fc0              LSRS     r0,r0,#31
00004c  4368              MULS     r0,r5,r0
00004e  b2c6              UXTB     r6,r0
000050  2103              MOVS     r1,#3
000052  4620              MOV      r0,r4
000054  f7fffffe          BL       __aeabi_uidivmod
000058  07c8              LSLS     r0,r1,#31
00005a  0fc0              LSRS     r0,r0,#31
00005c  4368              MULS     r0,r5,r0
00005e  b2c1              UXTB     r1,r0
000060  463b              MOV      r3,r7
000062  4632              MOV      r2,r6
000064  4620              MOV      r0,r4
000066  f7fffffe          BL       setLED_Color
;;;1469   
;;;1470   	    setLED_Display(LED_DATA_LEN);
00006a  2036              MOVS     r0,#0x36
00006c  f7fffffe          BL       setLED_Display
;;;1471   		
;;;1472   	    delay(time);			
000070  9800              LDR      r0,[sp,#0]
                  |L29.114|
000072  4601              MOV      r1,r0
000074  1e40              SUBS     r0,r0,#1
000076  b280              UXTH     r0,r0
000078  2900              CMP      r1,#0
00007a  d1fa              BNE      |L29.114|
00007c  1c64              ADDS     r4,r4,#1
00007e  b2e4              UXTB     r4,r4                 ;1466
000080  2c12              CMP      r4,#0x12              ;1466
000082  d3d3              BCC      |L29.44|
;;;1473       }
;;;1474   
;;;1475   }
000084  bdf8              POP      {r3-r7,pc}
;;;1476   
                          ENDP

000086  0000              DCW      0x0000
                  |L29.136|
                          DCD      ||.data||

                          AREA ||i.getRainbow||, CODE, READONLY, ALIGN=1

                  getRainbow PROC
;;;1561   
;;;1562   void getRainbow(uint16_t time)
000000  b53e              PUSH     {r1-r5,lr}
;;;1563   {
;;;1564   	uint8_t i = 0;
000002  2400              MOVS     r4,#0
;;;1565   	uint8_t red , green, blue = 0;
000004  4669              MOV      r1,sp
000006  4605              MOV      r5,r0                 ;1563
000008  700c              STRB     r4,[r1,#0]
                  |L30.10|
;;;1566   
;;;1567   	for (i=0;i<LED_NUM;i++)
;;;1568   	{
;;;1569   		_stripEffect_Rainbow(&red,&green,&blue);
00000a  466a              MOV      r2,sp
00000c  a901              ADD      r1,sp,#4
00000e  a802              ADD      r0,sp,#8
000010  f7fffffe          BL       _stripEffect_Rainbow
;;;1570   		setLED_Color(i,red,green,blue); // Output a colour Format: GGRRBB							
000014  4668              MOV      r0,sp
000016  7803              LDRB     r3,[r0,#0]
000018  7902              LDRB     r2,[r0,#4]
00001a  7a01              LDRB     r1,[r0,#8]
00001c  4620              MOV      r0,r4
00001e  f7fffffe          BL       setLED_Color
000022  1c64              ADDS     r4,r4,#1
000024  b2e4              UXTB     r4,r4                 ;1567
000026  2c12              CMP      r4,#0x12              ;1567
000028  d3ef              BCC      |L30.10|
;;;1571   	}
;;;1572   	
;;;1573   	// Now send out the bits to the SPI bus
;;;1574   	setLED_Display(LED_DATA_LEN);  	
00002a  2036              MOVS     r0,#0x36
00002c  f7fffffe          BL       setLED_Display
;;;1575   
;;;1576   	delay_ms(time);	
000030  4628              MOV      r0,r5
000032  f7fffffe          BL       delay_ms
;;;1577   }
000036  bd3e              POP      {r1-r5,pc}
;;;1578   
                          ENDP


                          AREA ||i.getRainbowCycle||, CODE, READONLY, ALIGN=1

                  getRainbowCycle PROC
;;;1536   
;;;1537   void getRainbowCycle(uint8_t cycle , uint16_t time) 
000000  b5fe              PUSH     {r1-r7,lr}
;;;1538   {
;;;1539   	uint16_t i = 0, j = 0;
000002  2500              MOVS     r5,#0
;;;1540   	uint8_t red , green, blue = 0;
000004  466a              MOV      r2,sp
000006  460f              MOV      r7,r1                 ;1538
000008  7015              STRB     r5,[r2,#0]
;;;1541   	
;;;1542   	for(j=0; j<256*cycle; j++) 
00000a  0206              LSLS     r6,r0,#8
00000c  e01e              B        |L31.76|
                  |L31.14|
;;;1543   	{ 
;;;1544   		// 5 cycles of all colors on wheel
;;;1545   		for(i=0; i< LED_NUM; i++) 
00000e  2400              MOVS     r4,#0
                  |L31.16|
;;;1546   		{
;;;1547   			_stripEffect_Wheel((((i * 256 / LED_NUM) + j) & 255),&red,&green,&blue);
000010  0220              LSLS     r0,r4,#8
000012  2112              MOVS     r1,#0x12
000014  f7fffffe          BL       __aeabi_uidivmod
000018  1940              ADDS     r0,r0,r5
00001a  b2c0              UXTB     r0,r0
00001c  466b              MOV      r3,sp
00001e  aa01              ADD      r2,sp,#4
000020  a902              ADD      r1,sp,#8
000022  f7fffffe          BL       _stripEffect_Wheel
;;;1548   			setLED_Color(i,red,green,blue);
000026  4669              MOV      r1,sp
000028  780b              LDRB     r3,[r1,#0]
00002a  790a              LDRB     r2,[r1,#4]
00002c  b2e0              UXTB     r0,r4
00002e  7a09              LDRB     r1,[r1,#8]
000030  f7fffffe          BL       setLED_Color
000034  1c64              ADDS     r4,r4,#1
000036  b2a4              UXTH     r4,r4                 ;1545
000038  2c12              CMP      r4,#0x12              ;1545
00003a  d3e9              BCC      |L31.16|
;;;1549   		
;;;1550   //			setLED_Color(i, 
;;;1551   //				UNPACK_R(_stripEffect_Wheel(((i * 256 / LED_NUM) + j) & 255)),
;;;1552   //				UNPACK_G(_stripEffect_Wheel(((i * 256 / LED_NUM) + j) & 255)),
;;;1553   //				UNPACK_B(_stripEffect_Wheel(((i * 256 / LED_NUM) + j) & 255)));
;;;1554   		}
;;;1555   		
;;;1556   		setLED_Display(LED_DATA_LEN);
00003c  2036              MOVS     r0,#0x36
00003e  f7fffffe          BL       setLED_Display
;;;1557   
;;;1558   		delay_ms(time);
000042  4638              MOV      r0,r7
000044  f7fffffe          BL       delay_ms
000048  1c6d              ADDS     r5,r5,#1
00004a  b2ad              UXTH     r5,r5                 ;1542
                  |L31.76|
00004c  42ae              CMP      r6,r5                 ;1542
00004e  d8de              BHI      |L31.14|
;;;1559   	}
;;;1560   }
000050  bdfe              POP      {r1-r7,pc}
;;;1561   
                          ENDP


                          AREA ||i.getTheaterChase||, CODE, READONLY, ALIGN=1

                  getTheaterChase PROC
;;;1509   
;;;1510   void getTheaterChase(uint16_t time ,uint8_t RED, uint8_t GREEN, uint8_t BLUE) 
000000  b5ff              PUSH     {r0-r7,lr}
;;;1511   {
000002  b081              SUB      sp,sp,#4
000004  461f              MOV      r7,r3
;;;1512   	uint16_t j = 0;
000006  2600              MOVS     r6,#0
                  |L32.8|
;;;1513   	uint16_t q = 0;
;;;1514   	uint16_t i = 0;
;;;1515   
;;;1516   	for (j=0; j<10; j++) 
;;;1517   	{  //do 10 cycles of chasing
;;;1518   		for (q=0; q < 3; q++) 
000008  2400              MOVS     r4,#0
                  |L32.10|
;;;1519   		{
;;;1520   			for (i=0; i < LED_NUM; i=i+3) 
00000a  2500              MOVS     r5,#0
                  |L32.12|
;;;1521   			{
;;;1522   				setLED_Color(i+q, RED,GREEN,BLUE);    //turn every third pixel on
00000c  1928              ADDS     r0,r5,r4
00000e  b2c0              UXTB     r0,r0
000010  463b              MOV      r3,r7
000012  9a03              LDR      r2,[sp,#0xc]
000014  9902              LDR      r1,[sp,#8]
000016  f7fffffe          BL       setLED_Color
00001a  1ced              ADDS     r5,r5,#3
00001c  b2ad              UXTH     r5,r5                 ;1520
00001e  2d12              CMP      r5,#0x12              ;1520
000020  d3f4              BCC      |L32.12|
;;;1523   			}
;;;1524   			setLED_Display(LED_DATA_LEN);
000022  2036              MOVS     r0,#0x36
000024  f7fffffe          BL       setLED_Display
;;;1525   
;;;1526   			delay_ms(time);
000028  9801              LDR      r0,[sp,#4]
00002a  f7fffffe          BL       delay_ms
;;;1527   
;;;1528   			for (i=0; i < LED_NUM; i=i+3) 
00002e  2500              MOVS     r5,#0
                  |L32.48|
;;;1529   			{
;;;1530   				setLED_Color(i+q, 0 , 0 , 0);        //turn every third pixel off
000030  2300              MOVS     r3,#0
000032  1928              ADDS     r0,r5,r4
000034  b2c0              UXTB     r0,r0
000036  461a              MOV      r2,r3
000038  4619              MOV      r1,r3
00003a  f7fffffe          BL       setLED_Color
00003e  1ced              ADDS     r5,r5,#3
000040  b2ad              UXTH     r5,r5                 ;1528
000042  2d12              CMP      r5,#0x12              ;1528
000044  d3f4              BCC      |L32.48|
000046  1c64              ADDS     r4,r4,#1              ;1528
000048  b2a4              UXTH     r4,r4                 ;1518
00004a  2c03              CMP      r4,#3                 ;1518
00004c  d3dd              BCC      |L32.10|
00004e  1c76              ADDS     r6,r6,#1              ;1518
000050  b2b6              UXTH     r6,r6                 ;1516
000052  2e0a              CMP      r6,#0xa               ;1516
000054  d3d8              BCC      |L32.8|
;;;1531   			}
;;;1532   		}
;;;1533   	}
;;;1534   }
000056  b005              ADD      sp,sp,#0x14
000058  bdf0              POP      {r4-r7,pc}
;;;1535   
                          ENDP


                          AREA ||i.getTheaterChaseRainbow||, CODE, READONLY, ALIGN=1

                  getTheaterChaseRainbow PROC
;;;1476   
;;;1477   void getTheaterChaseRainbow(uint16_t time) 
000000  b5fe              PUSH     {r1-r7,lr}
;;;1478   {
;;;1479   	uint16_t j = 0;
000002  2600              MOVS     r6,#0
;;;1480   	uint8_t q = 0; 
;;;1481   	uint16_t i=0;
;;;1482   	uint8_t red , green, blue = 0;
000004  4669              MOV      r1,sp
000006  4607              MOV      r7,r0                 ;1478
000008  700e              STRB     r6,[r1,#0]
                  |L33.10|
;;;1483   	
;;;1484   	for (j=0; j < 256; j++) 
;;;1485   	{     // cycle all 256 colors in the wheel
;;;1486   		for (q=0; q < 3; q++) 
00000a  2500              MOVS     r5,#0
                  |L33.12|
;;;1487   		{
;;;1488   			for (i=0; i < LED_NUM ; i=i+3) 
00000c  2400              MOVS     r4,#0
                  |L33.14|
;;;1489   			{				
;;;1490   				_stripEffect_Wheel(( (i+j) % 255),&red,&green,&blue);
00000e  19a0              ADDS     r0,r4,r6
000010  21ff              MOVS     r1,#0xff
000012  f7fffffe          BL       __aeabi_uidivmod
000016  4608              MOV      r0,r1
000018  466b              MOV      r3,sp
00001a  aa01              ADD      r2,sp,#4
00001c  a902              ADD      r1,sp,#8
00001e  f7fffffe          BL       _stripEffect_Wheel
;;;1491   				setLED_Color(i+q, red,green,blue);
000022  4669              MOV      r1,sp
000024  1960              ADDS     r0,r4,r5
000026  780b              LDRB     r3,[r1,#0]
000028  790a              LDRB     r2,[r1,#4]
00002a  b2c0              UXTB     r0,r0
00002c  7a09              LDRB     r1,[r1,#8]
00002e  f7fffffe          BL       setLED_Color
000032  1ce4              ADDS     r4,r4,#3
000034  b2a4              UXTH     r4,r4                 ;1488
000036  2c12              CMP      r4,#0x12              ;1488
000038  d3e9              BCC      |L33.14|
;;;1492   			
;;;1493   //				setLED_Color(i+q, 
;;;1494   //					UNPACK_R(_stripEffect_Wheel( (i+j) % 255)),
;;;1495   //					UNPACK_G(_stripEffect_Wheel( (i+j) % 255)),
;;;1496   //					UNPACK_B(_stripEffect_Wheel( (i+j) % 255)));    //turn every third pixel on
;;;1497   			}
;;;1498   			setLED_Display(LED_DATA_LEN);
00003a  2036              MOVS     r0,#0x36
00003c  f7fffffe          BL       setLED_Display
;;;1499   
;;;1500   			delay_ms(time);
000040  4638              MOV      r0,r7
000042  f7fffffe          BL       delay_ms
;;;1501   
;;;1502   			for (i=0; i < LED_NUM ; i=i+3) 
000046  2400              MOVS     r4,#0
                  |L33.72|
;;;1503   			{
;;;1504   				setLED_Color(i+q, 0 , 0 , 0);        //turn every third pixel off
000048  2300              MOVS     r3,#0
00004a  1960              ADDS     r0,r4,r5
00004c  b2c0              UXTB     r0,r0
00004e  461a              MOV      r2,r3
000050  4619              MOV      r1,r3
000052  f7fffffe          BL       setLED_Color
000056  1ce4              ADDS     r4,r4,#3
000058  b2a4              UXTH     r4,r4                 ;1502
00005a  2c12              CMP      r4,#0x12              ;1502
00005c  d3f4              BCC      |L33.72|
00005e  1c6d              ADDS     r5,r5,#1              ;1502
000060  b2ed              UXTB     r5,r5                 ;1486
000062  2d03              CMP      r5,#3                 ;1486
000064  d3d2              BCC      |L33.12|
000066  1c76              ADDS     r6,r6,#1              ;1486
000068  b2b6              UXTH     r6,r6                 ;1484
00006a  2eff              CMP      r6,#0xff              ;1484
00006c  d9cd              BLS      |L33.10|
;;;1505   			}
;;;1506   		}
;;;1507   	}
;;;1508   }
00006e  bdfe              POP      {r1-r7,pc}
;;;1509   
                          ENDP


                          AREA ||i.main||, CODE, READONLY, ALIGN=2

                          REQUIRE _printf_pre_padding
                          REQUIRE _printf_percent
                          REQUIRE _printf_widthprec
                          REQUIRE _printf_d
                          REQUIRE _printf_int_dec
                  main PROC
;;;1837   
;;;1838   int main()
000000  f7fffffe          BL       SYS_Init
;;;1839   {
;;;1840       SYS_Init();
;;;1841   
;;;1842       SYS_ResetModule(UART0_RST);
000004  481a              LDR      r0,|L34.112|
000006  f7fffffe          BL       SYS_ResetModule
;;;1843   
;;;1844       /* Configure UART0 and set UART0 baud rate */
;;;1845       UART_Open(UART0, 115200);
00000a  4c1a              LDR      r4,|L34.116|
00000c  21e1              MOVS     r1,#0xe1
00000e  0249              LSLS     r1,r1,#9
000010  4620              MOV      r0,r4
000012  f7fffffe          BL       UART_Open
;;;1846       UART_EnableInt(UART0, UART_INTEN_RDAIEN_Msk | UART_INTEN_RXTOIEN_Msk);
000016  2111              MOVS     r1,#0x11
000018  4620              MOV      r0,r4
00001a  f7fffffe          BL       UART_EnableInt
00001e  2001              MOVS     r0,#1
000020  4915              LDR      r1,|L34.120|
000022  0300              LSLS     r0,r0,#12
000024  6008              STR      r0,[r1,#0]
;;;1847       NVIC_EnableIRQ(UART02_IRQn);
;;;1848   	
;;;1849   	printf("\r\nCLK_GetCPUFreq : %8d\r\n",CLK_GetCPUFreq());
000026  f7fffffe          BL       CLK_GetCPUFreq
00002a  4601              MOV      r1,r0
00002c  a013              ADR      r0,|L34.124|
00002e  f7fffffe          BL       __2printf
;;;1850   	printf("CLK_GetHXTFreq : %8d\r\n",CLK_GetHXTFreq());
000032  f7fffffe          BL       CLK_GetHXTFreq
000036  4601              MOV      r1,r0
000038  a017              ADR      r0,|L34.152|
00003a  f7fffffe          BL       __2printf
;;;1851   	printf("CLK_GetLXTFreq : %8d\r\n",CLK_GetLXTFreq());	
00003e  f7fffffe          BL       CLK_GetLXTFreq
000042  4601              MOV      r1,r0
000044  a01a              ADR      r0,|L34.176|
000046  f7fffffe          BL       __2printf
;;;1852   	printf("CLK_GetPCLK0Freq : %8d\r\n",CLK_GetPCLK0Freq());
00004a  f7fffffe          BL       CLK_GetPCLK0Freq
00004e  4601              MOV      r1,r0
000050  a01d              ADR      r0,|L34.200|
000052  f7fffffe          BL       __2printf
;;;1853   	printf("CLK_GetPCLK1Freq : %8d\r\n",CLK_GetPCLK1Freq());	
000056  f7fffffe          BL       CLK_GetPCLK1Freq
00005a  4601              MOV      r1,r0
00005c  a021              ADR      r0,|L34.228|
00005e  f7fffffe          BL       __2printf
;;;1854   
;;;1855   //	GPIO_Init();
;;;1856   	TIMER1_Init();
000062  f7fffffe          BL       TIMER1_Init
;;;1857   
;;;1858   	WS2812C_Initial();
000066  f7fffffe          BL       WS2812C_Initial
                  |L34.106|
;;;1859   
;;;1860       /* Got no where to go, just loop forever */
;;;1861       while(1)
;;;1862       {
;;;1863   		#if defined (ENABLE_DEBUG_WS2812_PROTOCOL)
;;;1864   		setLED_ColorWipe(0xFF, 0x00, 0x00);
;;;1865   		delay_ms(1);
;;;1866   		#else
;;;1867   
;;;1868   		StateMachine();
00006a  f7fffffe          BL       StateMachine
00006e  e7fc              B        |L34.106|
;;;1869   		#endif
;;;1870   
;;;1871       }
;;;1872   }
;;;1873   
                          ENDP

                  |L34.112|
                          DCD      0x04000010
                  |L34.116|
                          DCD      0x40070000
                  |L34.120|
                          DCD      0xe000e100
                  |L34.124|
00007c  0d0a434c          DCB      "\r\nCLK_GetCPUFreq : %8d\r\n",0
000080  4b5f4765
000084  74435055
000088  46726571
00008c  203a2025
000090  38640d0a
000094  00      
000095  00                DCB      0
000096  00                DCB      0
000097  00                DCB      0
                  |L34.152|
000098  434c4b5f          DCB      "CLK_GetHXTFreq : %8d\r\n",0
00009c  47657448
0000a0  58544672
0000a4  6571203a
0000a8  20253864
0000ac  0d0a00  
0000af  00                DCB      0
                  |L34.176|
0000b0  434c4b5f          DCB      "CLK_GetLXTFreq : %8d\r\n",0
0000b4  4765744c
0000b8  58544672
0000bc  6571203a
0000c0  20253864
0000c4  0d0a00  
0000c7  00                DCB      0
                  |L34.200|
0000c8  434c4b5f          DCB      "CLK_GetPCLK0Freq : %8d\r\n",0
0000cc  47657450
0000d0  434c4b30
0000d4  46726571
0000d8  203a2025
0000dc  38640d0a
0000e0  00      
0000e1  00                DCB      0
0000e2  00                DCB      0
0000e3  00                DCB      0
                  |L34.228|
0000e4  434c4b5f          DCB      "CLK_GetPCLK1Freq : %8d\r\n",0
0000e8  47657450
0000ec  434c4b31
0000f0  46726571
0000f4  203a2025
0000f8  38640d0a
0000fc  00      
0000fd  00                DCB      0
0000fe  00                DCB      0
0000ff  00                DCB      0

                          AREA ||i.setLED_BufferClear||, CODE, READONLY, ALIGN=2

                  setLED_BufferClear PROC
;;;1083   
;;;1084   void setLED_BufferClear(void)
000000  b510              PUSH     {r4,lr}
;;;1085   {
;;;1086   	memset(DataBuffer,0x00,LED_DATA_LEN);
000002  2136              MOVS     r1,#0x36
000004  4801              LDR      r0,|L35.12|
000006  f7fffffe          BL       __aeabi_memclr
;;;1087   }
00000a  bd10              POP      {r4,pc}
;;;1088   
                          ENDP

                  |L35.12|
                          DCD      ||.bss||

                          AREA ||i.setLED_Color||, CODE, READONLY, ALIGN=2

                  setLED_Color PROC
;;;1088   
;;;1089   void setLED_Color(uint8_t DeviceNumber ,uint8_t RED, uint8_t GREEN, uint8_t BLUE)	// Output a colour Format: GGRRBB	
000000  b510              PUSH     {r4,lr}
;;;1090   {
;;;1091   	DataBuffer[DeviceNumber*3]   = GREEN;
000002  0044              LSLS     r4,r0,#1
000004  1900              ADDS     r0,r0,r4
000006  4c03              LDR      r4,|L36.20|
000008  5422              STRB     r2,[r4,r0]
;;;1092   	DataBuffer[DeviceNumber*3+1] = RED;
00000a  1900              ADDS     r0,r0,r4
00000c  7041              STRB     r1,[r0,#1]
;;;1093   	DataBuffer[DeviceNumber*3+2] = BLUE;
00000e  7083              STRB     r3,[r0,#2]
;;;1094   
;;;1095   }
000010  bd10              POP      {r4,pc}
;;;1096   
                          ENDP

000012  0000              DCW      0x0000
                  |L36.20|
                          DCD      ||.bss||

                          AREA ||i.setLED_ColorIdxChange||, CODE, READONLY, ALIGN=2

                  setLED_ColorIdxChange PROC
;;;1109   
;;;1110   void setLED_ColorIdxChange(void)
000000  490b              LDR      r1,|L37.48|
;;;1111   {
;;;1112   	static uint8_t flag = 1;
;;;1113   
;;;1114   	if (flag)		//reverse color index
000002  2200              MOVS     r2,#0
000004  784b              LDRB     r3,[r1,#1]  ; flag
000006  4608              MOV      r0,r1
;;;1115   	{
;;;1116   		if ( Coloridx >= (COLORTALBE_NUM-1))
000008  8940              LDRH     r0,[r0,#0xa]
00000a  2b00              CMP      r3,#0                 ;1114
00000c  d007              BEQ      |L37.30|
00000e  4b09              LDR      r3,|L37.52|
000010  4298              CMP      r0,r3
000012  d302              BCC      |L37.26|
;;;1117   		{
;;;1118   			flag = 0;
000014  704a              STRB     r2,[r1,#1]
;;;1119   			Coloridx = COLORTALBE_NUM-1;
000016  814b              STRH     r3,[r1,#0xa]
;;;1120   		}
;;;1121   		else
;;;1122   		{
;;;1123   			Coloridx++;
;;;1124   		}
;;;1125   	}
;;;1126   	else
;;;1127   	{
;;;1128   		if (Coloridx <= 0)
;;;1129   		{
;;;1130   			flag = 1;
;;;1131   			Coloridx = 0;	
;;;1132   		}
;;;1133   		else
;;;1134   		{
;;;1135   			Coloridx--;
;;;1136   		}
;;;1137   	}
;;;1138   	
;;;1139   }
000018  4770              BX       lr
                  |L37.26|
00001a  1c40              ADDS     r0,r0,#1
00001c  e002              B        |L37.36|
                  |L37.30|
00001e  2800              CMP      r0,#0                 ;1128
000020  d002              BEQ      |L37.40|
000022  1e40              SUBS     r0,r0,#1              ;1128
                  |L37.36|
000024  8148              STRH     r0,[r1,#0xa]          ;1123
000026  4770              BX       lr
                  |L37.40|
000028  2001              MOVS     r0,#1                 ;1130
00002a  7048              STRB     r0,[r1,#1]            ;1130
00002c  814a              STRH     r2,[r1,#0xa]          ;1131
00002e  4770              BX       lr
;;;1140   
                          ENDP

                  |L37.48|
                          DCD      ||.data||
                  |L37.52|
                          DCD      0x000002fd

                          AREA ||i.setLED_ColorWipe||, CODE, READONLY, ALIGN=1

                  setLED_ColorWipe PROC
;;;1096   
;;;1097   void setLED_ColorWipe(uint8_t RED, uint8_t GREEN, uint8_t BLUE) 
000000  b5f8              PUSH     {r3-r7,lr}
;;;1098   {
000002  4615              MOV      r5,r2
000004  460e              MOV      r6,r1
000006  4607              MOV      r7,r0
;;;1099   	uint8_t index = 0 ;
000008  2400              MOVS     r4,#0
                  |L38.10|
;;;1100   
;;;1101   	for (index = 0; index < LED_NUM; index++)
;;;1102   	{
;;;1103   		setLED_Color(index, RED, GREEN, BLUE);
00000a  462b              MOV      r3,r5
00000c  4632              MOV      r2,r6
00000e  4639              MOV      r1,r7
000010  4620              MOV      r0,r4
000012  f7fffffe          BL       setLED_Color
000016  1c64              ADDS     r4,r4,#1
000018  b2e4              UXTB     r4,r4                 ;1101
00001a  2c12              CMP      r4,#0x12              ;1101
00001c  d3f5              BCC      |L38.10|
;;;1104   	}
;;;1105   
;;;1106   	setLED_Display(LED_DATA_LEN);
00001e  2036              MOVS     r0,#0x36
000020  f7fffffe          BL       setLED_Display
;;;1107   }
000024  bdf8              POP      {r3-r7,pc}
;;;1108   
                          ENDP


                          AREA ||i.setLED_Display||, CODE, READONLY, ALIGN=2

                  setLED_Display PROC
;;;1036   
;;;1037   void setLED_Display(uint16_t DataCount)
000000  b5f1              PUSH     {r0,r4-r7,lr}
;;;1038   {
;;;1039   	uint16_t num_led = 0;
000002  2200              MOVS     r2,#0
000004  b082              SUB      sp,sp,#8              ;1038
;;;1040   	uint16_t num_byte = 0;
;;;1041   	uint16_t num_pixel = 0;
;;;1042   	
;;;1043   	setLED_ResetPulse(WS_RES_POS_FRONT);
000006  4610              MOV      r0,r2
000008  f7fffffe          BL       setLED_ResetPulse
;;;1044   
;;;1045   	/* 
;;;1046   		convert RGB data into SPI data (0xFC , 0xC0)
;;;1047   		1 LED = 3 pixel R , G , B 
;;;1048   			 => each pixel (ex : R) , need 8 bytes SPI data transfer
;;;1049   			 => 1 LED = 3 * 8 = 24 bytes for SPI data
;;;1050   
;;;1051   		ex : 
;;;1052   		if RGB data G = 0x00 , R = 0xFF , B = 0x00
;;;1053   		SPI data will be 24 bytes , as below
;;;1054   
;;;1055   		0xC0 ,0xC0 ,0xC0 ,0xC0 ,0xC0 ,0xC0 ,0xC0 ,0xC0 ,
;;;1056   		0xFC ,0xFC ,0xFC ,0xFC ,0xFC ,0xFC ,0xFC ,0xFC ,			 
;;;1057   		0xC0 ,0xC0 ,0xC0 ,0xC0 ,0xC0 ,0xC0 ,0xC0 ,0xC0 ,
;;;1058   	*/
;;;1059   	for(num_led=0  ; num_led < LED_NUM ; num_led++)
;;;1060   	{
;;;1061   		for (num_pixel = 0; num_pixel < 3; num_pixel ++)
;;;1062   		{
;;;1063   			for (num_byte = 0; num_byte < 8; num_byte ++)
;;;1064   			{
;;;1065   				if (DataBuffer[num_led*3+num_pixel] & 0x80)
;;;1066   				{
;;;1067   					SpiBuffer[num_led*24 + num_pixel*8 + num_byte] = WS_SPI_HIGH;
00000c  4d1a              LDR      r5,|L39.120|
                  |L39.14|
00000e  4610              MOV      r0,r2                 ;1039
000010  2318              MOVS     r3,#0x18
000012  4358              MULS     r0,r3,r0
000014  4686              MOV      lr,r0
000016  2100              MOVS     r1,#0                 ;1061
000018  0050              LSLS     r0,r2,#1              ;1065
00001a  1810              ADDS     r0,r2,r0              ;1065
00001c  9000              STR      r0,[sp,#0]            ;1065
                  |L39.30|
00001e  00cb              LSLS     r3,r1,#3
000020  4674              MOV      r4,lr
000022  18e4              ADDS     r4,r4,r3
000024  9b00              LDR      r3,[sp,#0]            ;1065
000026  2000              MOVS     r0,#0                 ;1063
000028  185b              ADDS     r3,r3,r1              ;1065
                  |L39.42|
00002a  4e13              LDR      r6,|L39.120|
00002c  3e36              SUBS     r6,r6,#0x36           ;1065
00002e  5cf6              LDRB     r6,[r6,r3]            ;1065
000030  46b4              MOV      r12,r6                ;1065
000032  0636              LSLS     r6,r6,#24             ;1065
000034  d501              BPL      |L39.58|
000036  26fc              MOVS     r6,#0xfc
000038  e000              B        |L39.60|
                  |L39.58|
;;;1068   				}
;;;1069   				else
;;;1070   				{
;;;1071   					SpiBuffer[num_led*24 + num_pixel*8 + num_byte] = WS_SPI_LOW;
00003a  26c0              MOVS     r6,#0xc0
                  |L39.60|
00003c  1827              ADDS     r7,r4,r0
00003e  55ee              STRB     r6,[r5,r7]
;;;1072   				}
;;;1073   				DataBuffer[num_led*3+num_pixel] <<= 1;	
000040  4e0d              LDR      r6,|L39.120|
000042  4667              MOV      r7,r12
000044  3e36              SUBS     r6,r6,#0x36
000046  007f              LSLS     r7,r7,#1
000048  1c40              ADDS     r0,r0,#1
00004a  b280              UXTH     r0,r0                 ;1063
00004c  54f7              STRB     r7,[r6,r3]
00004e  2808              CMP      r0,#8                 ;1063
000050  d3eb              BCC      |L39.42|
000052  1c49              ADDS     r1,r1,#1              ;1063
000054  b289              UXTH     r1,r1                 ;1061
000056  2903              CMP      r1,#3                 ;1061
000058  d3e1              BCC      |L39.30|
00005a  1c52              ADDS     r2,r2,#1              ;1061
00005c  b292              UXTH     r2,r2                 ;1059
00005e  2a12              CMP      r2,#0x12              ;1059
000060  d3d5              BCC      |L39.14|
;;;1074   			} 
;;;1075   		}		
;;;1076   	}
;;;1077   
;;;1078   	SPI_PDMA_Start(SpiBuffer,DataCount*8);
000062  9802              LDR      r0,[sp,#8]
000064  04c0              LSLS     r0,r0,#19
000066  0c01              LSRS     r1,r0,#16
000068  4803              LDR      r0,|L39.120|
00006a  f7fffffe          BL       SPI_PDMA_Start
;;;1079   	
;;;1080   	setLED_ResetPulse(WS_RES_POS_BACK);
00006e  2001              MOVS     r0,#1
000070  f7fffffe          BL       setLED_ResetPulse
;;;1081   	
;;;1082   }
000074  bdfe              POP      {r1-r7,pc}
;;;1083   
                          ENDP

000076  0000              DCW      0x0000
                  |L39.120|
                          DCD      ||.bss||+0x36

                          AREA ||i.setLED_ResetPulse||, CODE, READONLY, ALIGN=1

                  setLED_ResetPulse PROC
;;;1022   
;;;1023   void setLED_ResetPulse(uint8_t pos)	//target : 280us
000000  2800              CMP      r0,#0
;;;1024   {
000002  d007              BEQ      |L40.20|
;;;1025   	
;;;1026   	if (pos == WS_RES_POS_FRONT)	//57 us
;;;1027   	{
;;;1028   		delay(400);
;;;1029   	}
;;;1030   	else
;;;1031   	{
;;;1032   		delay(MS_LED_LATCH);
000004  207d              MOVS     r0,#0x7d
000006  0100              LSLS     r0,r0,#4
                  |L40.8|
000008  4601              MOV      r1,r0
00000a  1e40              SUBS     r0,r0,#1
00000c  b280              UXTH     r0,r0
00000e  2900              CMP      r1,#0
000010  d1fa              BNE      |L40.8|
;;;1033   	}
;;;1034   
;;;1035   }
000012  4770              BX       lr
                  |L40.20|
000014  20ff              MOVS     r0,#0xff              ;1028
000016  3091              ADDS     r0,r0,#0x91           ;1028
                  |L40.24|
000018  4601              MOV      r1,r0                 ;1028
00001a  1e40              SUBS     r0,r0,#1              ;1028
00001c  b280              UXTH     r0,r0                 ;1028
00001e  2900              CMP      r1,#0                 ;1028
000020  d1fa              BNE      |L40.24|
000022  4770              BX       lr
;;;1036   
                          ENDP


                          AREA ||.bss||, DATA, NOINIT, ALIGN=0

                  DataBuffer
                          %        54
                  SpiBuffer
                          %        432

                          AREA ||.constdata||, DATA, READONLY, ALIGN=0

                  colorsFull
000000  ff0000fe          DCB      0xff,0x00,0x00,0xfe
000004  0100fd02          DCB      0x01,0x00,0xfd,0x02
000008  00fc0300          DCB      0x00,0xfc,0x03,0x00
00000c  fb0400fa          DCB      0xfb,0x04,0x00,0xfa
000010  0500f906          DCB      0x05,0x00,0xf9,0x06
000014  00f80700          DCB      0x00,0xf8,0x07,0x00
000018  f70800f6          DCB      0xf7,0x08,0x00,0xf6
00001c  0900f50a          DCB      0x09,0x00,0xf5,0x0a
000020  00f40b00          DCB      0x00,0xf4,0x0b,0x00
000024  f30c00f2          DCB      0xf3,0x0c,0x00,0xf2
000028  0d00f10e          DCB      0x0d,0x00,0xf1,0x0e
00002c  00f00f00          DCB      0x00,0xf0,0x0f,0x00
000030  ef1000ee          DCB      0xef,0x10,0x00,0xee
000034  1100ed12          DCB      0x11,0x00,0xed,0x12
000038  00ec1300          DCB      0x00,0xec,0x13,0x00
00003c  eb1400ea          DCB      0xeb,0x14,0x00,0xea
000040  1500e916          DCB      0x15,0x00,0xe9,0x16
000044  00e81700          DCB      0x00,0xe8,0x17,0x00
000048  e71800e6          DCB      0xe7,0x18,0x00,0xe6
00004c  1900e51a          DCB      0x19,0x00,0xe5,0x1a
000050  00e41b00          DCB      0x00,0xe4,0x1b,0x00
000054  e31c00e2          DCB      0xe3,0x1c,0x00,0xe2
000058  1d00e11e          DCB      0x1d,0x00,0xe1,0x1e
00005c  00e01f00          DCB      0x00,0xe0,0x1f,0x00
000060  df2000de          DCB      0xdf,0x20,0x00,0xde
000064  2100dd22          DCB      0x21,0x00,0xdd,0x22
000068  00dc2300          DCB      0x00,0xdc,0x23,0x00
00006c  db2400da          DCB      0xdb,0x24,0x00,0xda
000070  2500d926          DCB      0x25,0x00,0xd9,0x26
000074  00d82700          DCB      0x00,0xd8,0x27,0x00
000078  d72800d6          DCB      0xd7,0x28,0x00,0xd6
00007c  2900d52a          DCB      0x29,0x00,0xd5,0x2a
000080  00d42b00          DCB      0x00,0xd4,0x2b,0x00
000084  d32c00d2          DCB      0xd3,0x2c,0x00,0xd2
000088  2d00d12e          DCB      0x2d,0x00,0xd1,0x2e
00008c  00d02f00          DCB      0x00,0xd0,0x2f,0x00
000090  cf3000ce          DCB      0xcf,0x30,0x00,0xce
000094  3100cd32          DCB      0x31,0x00,0xcd,0x32
000098  00cc3300          DCB      0x00,0xcc,0x33,0x00
00009c  cb3400ca          DCB      0xcb,0x34,0x00,0xca
0000a0  3500c936          DCB      0x35,0x00,0xc9,0x36
0000a4  00c83700          DCB      0x00,0xc8,0x37,0x00
0000a8  c73800c6          DCB      0xc7,0x38,0x00,0xc6
0000ac  3900c53a          DCB      0x39,0x00,0xc5,0x3a
0000b0  00c43b00          DCB      0x00,0xc4,0x3b,0x00
0000b4  c33c00c2          DCB      0xc3,0x3c,0x00,0xc2
0000b8  3d00c13e          DCB      0x3d,0x00,0xc1,0x3e
0000bc  00c03f00          DCB      0x00,0xc0,0x3f,0x00
0000c0  bf4000be          DCB      0xbf,0x40,0x00,0xbe
0000c4  4100bd42          DCB      0x41,0x00,0xbd,0x42
0000c8  00bc4300          DCB      0x00,0xbc,0x43,0x00
0000cc  bb4400ba          DCB      0xbb,0x44,0x00,0xba
0000d0  4500b946          DCB      0x45,0x00,0xb9,0x46
0000d4  00b84700          DCB      0x00,0xb8,0x47,0x00
0000d8  b74800b6          DCB      0xb7,0x48,0x00,0xb6
0000dc  4900b54a          DCB      0x49,0x00,0xb5,0x4a
0000e0  00b44b00          DCB      0x00,0xb4,0x4b,0x00
0000e4  b34c00b2          DCB      0xb3,0x4c,0x00,0xb2
0000e8  4d00b14e          DCB      0x4d,0x00,0xb1,0x4e
0000ec  00b04f00          DCB      0x00,0xb0,0x4f,0x00
0000f0  af5000ae          DCB      0xaf,0x50,0x00,0xae
0000f4  5100ad52          DCB      0x51,0x00,0xad,0x52
0000f8  00ac5300          DCB      0x00,0xac,0x53,0x00
0000fc  ab5400aa          DCB      0xab,0x54,0x00,0xaa
000100  5500a956          DCB      0x55,0x00,0xa9,0x56
000104  00a85700          DCB      0x00,0xa8,0x57,0x00
000108  a75800a6          DCB      0xa7,0x58,0x00,0xa6
00010c  5900a55a          DCB      0x59,0x00,0xa5,0x5a
000110  00a45b00          DCB      0x00,0xa4,0x5b,0x00
000114  a35c00a2          DCB      0xa3,0x5c,0x00,0xa2
000118  5d00a15e          DCB      0x5d,0x00,0xa1,0x5e
00011c  00a05f00          DCB      0x00,0xa0,0x5f,0x00
000120  9f60009e          DCB      0x9f,0x60,0x00,0x9e
000124  61009d62          DCB      0x61,0x00,0x9d,0x62
000128  009c6300          DCB      0x00,0x9c,0x63,0x00
00012c  9b64009a          DCB      0x9b,0x64,0x00,0x9a
000130  65009966          DCB      0x65,0x00,0x99,0x66
000134  00986700          DCB      0x00,0x98,0x67,0x00
000138  97680096          DCB      0x97,0x68,0x00,0x96
00013c  6900956a          DCB      0x69,0x00,0x95,0x6a
000140  00946b00          DCB      0x00,0x94,0x6b,0x00
000144  936c0092          DCB      0x93,0x6c,0x00,0x92
000148  6d00916e          DCB      0x6d,0x00,0x91,0x6e
00014c  00906f00          DCB      0x00,0x90,0x6f,0x00
000150  8f70008e          DCB      0x8f,0x70,0x00,0x8e
000154  71008d72          DCB      0x71,0x00,0x8d,0x72
000158  008c7300          DCB      0x00,0x8c,0x73,0x00
00015c  8b74008a          DCB      0x8b,0x74,0x00,0x8a
000160  75008976          DCB      0x75,0x00,0x89,0x76
000164  00887700          DCB      0x00,0x88,0x77,0x00
000168  87780086          DCB      0x87,0x78,0x00,0x86
00016c  7900857a          DCB      0x79,0x00,0x85,0x7a
000170  00847b00          DCB      0x00,0x84,0x7b,0x00
000174  837c0082          DCB      0x83,0x7c,0x00,0x82
000178  7d00817e          DCB      0x7d,0x00,0x81,0x7e
00017c  00807f00          DCB      0x00,0x80,0x7f,0x00
000180  7f80007e          DCB      0x7f,0x80,0x00,0x7e
000184  81007d82          DCB      0x81,0x00,0x7d,0x82
000188  007c8300          DCB      0x00,0x7c,0x83,0x00
00018c  7b84007a          DCB      0x7b,0x84,0x00,0x7a
000190  85007986          DCB      0x85,0x00,0x79,0x86
000194  00788700          DCB      0x00,0x78,0x87,0x00
000198  77880076          DCB      0x77,0x88,0x00,0x76
00019c  8900758a          DCB      0x89,0x00,0x75,0x8a
0001a0  00748b00          DCB      0x00,0x74,0x8b,0x00
0001a4  738c0072          DCB      0x73,0x8c,0x00,0x72
0001a8  8d00718e          DCB      0x8d,0x00,0x71,0x8e
0001ac  00708f00          DCB      0x00,0x70,0x8f,0x00
0001b0  6f90006e          DCB      0x6f,0x90,0x00,0x6e
0001b4  91006d92          DCB      0x91,0x00,0x6d,0x92
0001b8  006c9300          DCB      0x00,0x6c,0x93,0x00
0001bc  6b94006a          DCB      0x6b,0x94,0x00,0x6a
0001c0  95006996          DCB      0x95,0x00,0x69,0x96
0001c4  00689700          DCB      0x00,0x68,0x97,0x00
0001c8  67980066          DCB      0x67,0x98,0x00,0x66
0001cc  9900659a          DCB      0x99,0x00,0x65,0x9a
0001d0  00649b00          DCB      0x00,0x64,0x9b,0x00
0001d4  639c0062          DCB      0x63,0x9c,0x00,0x62
0001d8  9d00619e          DCB      0x9d,0x00,0x61,0x9e
0001dc  00609f00          DCB      0x00,0x60,0x9f,0x00
0001e0  5fa0005e          DCB      0x5f,0xa0,0x00,0x5e
0001e4  a1005da2          DCB      0xa1,0x00,0x5d,0xa2
0001e8  005ca300          DCB      0x00,0x5c,0xa3,0x00
0001ec  5ba4005a          DCB      0x5b,0xa4,0x00,0x5a
0001f0  a50059a6          DCB      0xa5,0x00,0x59,0xa6
0001f4  0058a700          DCB      0x00,0x58,0xa7,0x00
0001f8  57a80056          DCB      0x57,0xa8,0x00,0x56
0001fc  a90055aa          DCB      0xa9,0x00,0x55,0xaa
000200  0054ab00          DCB      0x00,0x54,0xab,0x00
000204  53ac0052          DCB      0x53,0xac,0x00,0x52
000208  ad0051ae          DCB      0xad,0x00,0x51,0xae
00020c  0050af00          DCB      0x00,0x50,0xaf,0x00
000210  4fb0004e          DCB      0x4f,0xb0,0x00,0x4e
000214  b1004db2          DCB      0xb1,0x00,0x4d,0xb2
000218  004cb300          DCB      0x00,0x4c,0xb3,0x00
00021c  4bb4004a          DCB      0x4b,0xb4,0x00,0x4a
000220  b50049b6          DCB      0xb5,0x00,0x49,0xb6
000224  0048b700          DCB      0x00,0x48,0xb7,0x00
000228  47b80046          DCB      0x47,0xb8,0x00,0x46
00022c  b90045ba          DCB      0xb9,0x00,0x45,0xba
000230  0044bb00          DCB      0x00,0x44,0xbb,0x00
000234  43bc0042          DCB      0x43,0xbc,0x00,0x42
000238  bd0041be          DCB      0xbd,0x00,0x41,0xbe
00023c  0040bf00          DCB      0x00,0x40,0xbf,0x00
000240  3fc0003e          DCB      0x3f,0xc0,0x00,0x3e
000244  c1003dc2          DCB      0xc1,0x00,0x3d,0xc2
000248  003cc300          DCB      0x00,0x3c,0xc3,0x00
00024c  3bc4003a          DCB      0x3b,0xc4,0x00,0x3a
000250  c50039c6          DCB      0xc5,0x00,0x39,0xc6
000254  0038c700          DCB      0x00,0x38,0xc7,0x00
000258  37c80036          DCB      0x37,0xc8,0x00,0x36
00025c  c90035ca          DCB      0xc9,0x00,0x35,0xca
000260  0034cb00          DCB      0x00,0x34,0xcb,0x00
000264  33cc0032          DCB      0x33,0xcc,0x00,0x32
000268  cd0031ce          DCB      0xcd,0x00,0x31,0xce
00026c  0030cf00          DCB      0x00,0x30,0xcf,0x00
000270  2fd0002e          DCB      0x2f,0xd0,0x00,0x2e
000274  d1002dd2          DCB      0xd1,0x00,0x2d,0xd2
000278  002cd300          DCB      0x00,0x2c,0xd3,0x00
00027c  2bd4002a          DCB      0x2b,0xd4,0x00,0x2a
000280  d50029d6          DCB      0xd5,0x00,0x29,0xd6
000284  0028d700          DCB      0x00,0x28,0xd7,0x00
000288  27d80026          DCB      0x27,0xd8,0x00,0x26
00028c  d90025da          DCB      0xd9,0x00,0x25,0xda
000290  0024db00          DCB      0x00,0x24,0xdb,0x00
000294  23dc0022          DCB      0x23,0xdc,0x00,0x22
000298  dd0021de          DCB      0xdd,0x00,0x21,0xde
00029c  0020df00          DCB      0x00,0x20,0xdf,0x00
0002a0  1fe0001e          DCB      0x1f,0xe0,0x00,0x1e
0002a4  e1001de2          DCB      0xe1,0x00,0x1d,0xe2
0002a8  001ce300          DCB      0x00,0x1c,0xe3,0x00
0002ac  1be4001a          DCB      0x1b,0xe4,0x00,0x1a
0002b0  e50019e6          DCB      0xe5,0x00,0x19,0xe6
0002b4  0018e700          DCB      0x00,0x18,0xe7,0x00
0002b8  17e80016          DCB      0x17,0xe8,0x00,0x16
0002bc  e90015ea          DCB      0xe9,0x00,0x15,0xea
0002c0  0014eb00          DCB      0x00,0x14,0xeb,0x00
0002c4  13ec0012          DCB      0x13,0xec,0x00,0x12
0002c8  ed0011ee          DCB      0xed,0x00,0x11,0xee
0002cc  0010ef00          DCB      0x00,0x10,0xef,0x00
0002d0  0ff0000e          DCB      0x0f,0xf0,0x00,0x0e
0002d4  f1000df2          DCB      0xf1,0x00,0x0d,0xf2
0002d8  000cf300          DCB      0x00,0x0c,0xf3,0x00
0002dc  0bf4000a          DCB      0x0b,0xf4,0x00,0x0a
0002e0  f50009f6          DCB      0xf5,0x00,0x09,0xf6
0002e4  0008f700          DCB      0x00,0x08,0xf7,0x00
0002e8  07f80006          DCB      0x07,0xf8,0x00,0x06
0002ec  f90005fa          DCB      0xf9,0x00,0x05,0xfa
0002f0  0004fb00          DCB      0x00,0x04,0xfb,0x00
0002f4  03fc0002          DCB      0x03,0xfc,0x00,0x02
0002f8  fd0001fe          DCB      0xfd,0x00,0x01,0xfe
0002fc  0000ff00          DCB      0x00,0x00,0xff,0x00
000300  00fe0100          DCB      0x00,0xfe,0x01,0x00
000304  fd0200fc          DCB      0xfd,0x02,0x00,0xfc
000308  0300fb04          DCB      0x03,0x00,0xfb,0x04
00030c  00fa0500          DCB      0x00,0xfa,0x05,0x00
000310  f90600f8          DCB      0xf9,0x06,0x00,0xf8
000314  0700f708          DCB      0x07,0x00,0xf7,0x08
000318  00f60900          DCB      0x00,0xf6,0x09,0x00
00031c  f50a00f4          DCB      0xf5,0x0a,0x00,0xf4
000320  0b00f30c          DCB      0x0b,0x00,0xf3,0x0c
000324  00f20d00          DCB      0x00,0xf2,0x0d,0x00
000328  f10e00f0          DCB      0xf1,0x0e,0x00,0xf0
00032c  0f00ef10          DCB      0x0f,0x00,0xef,0x10
000330  00ee1100          DCB      0x00,0xee,0x11,0x00
000334  ed1200ec          DCB      0xed,0x12,0x00,0xec
000338  1300eb14          DCB      0x13,0x00,0xeb,0x14
00033c  00ea1500          DCB      0x00,0xea,0x15,0x00
000340  e91600e8          DCB      0xe9,0x16,0x00,0xe8
000344  1700e718          DCB      0x17,0x00,0xe7,0x18
000348  00e61900          DCB      0x00,0xe6,0x19,0x00
00034c  e51a00e4          DCB      0xe5,0x1a,0x00,0xe4
000350  1b00e31c          DCB      0x1b,0x00,0xe3,0x1c
000354  00e21d00          DCB      0x00,0xe2,0x1d,0x00
000358  e11e00e0          DCB      0xe1,0x1e,0x00,0xe0
00035c  1f00df20          DCB      0x1f,0x00,0xdf,0x20
000360  00de2100          DCB      0x00,0xde,0x21,0x00
000364  dd2200dc          DCB      0xdd,0x22,0x00,0xdc
000368  2300db24          DCB      0x23,0x00,0xdb,0x24
00036c  00da2500          DCB      0x00,0xda,0x25,0x00
000370  d92600d8          DCB      0xd9,0x26,0x00,0xd8
000374  2700d728          DCB      0x27,0x00,0xd7,0x28
000378  00d62900          DCB      0x00,0xd6,0x29,0x00
00037c  d52a00d4          DCB      0xd5,0x2a,0x00,0xd4
000380  2b00d32c          DCB      0x2b,0x00,0xd3,0x2c
000384  00d22d00          DCB      0x00,0xd2,0x2d,0x00
000388  d12e00d0          DCB      0xd1,0x2e,0x00,0xd0
00038c  2f00cf30          DCB      0x2f,0x00,0xcf,0x30
000390  00ce3100          DCB      0x00,0xce,0x31,0x00
000394  cd3200cc          DCB      0xcd,0x32,0x00,0xcc
000398  3300cb34          DCB      0x33,0x00,0xcb,0x34
00039c  00ca3500          DCB      0x00,0xca,0x35,0x00
0003a0  c93600c8          DCB      0xc9,0x36,0x00,0xc8
0003a4  3700c738          DCB      0x37,0x00,0xc7,0x38
0003a8  00c63900          DCB      0x00,0xc6,0x39,0x00
0003ac  c53a00c4          DCB      0xc5,0x3a,0x00,0xc4
0003b0  3b00c33c          DCB      0x3b,0x00,0xc3,0x3c
0003b4  00c23d00          DCB      0x00,0xc2,0x3d,0x00
0003b8  c13e00c0          DCB      0xc1,0x3e,0x00,0xc0
0003bc  3f00bf40          DCB      0x3f,0x00,0xbf,0x40
0003c0  00be4100          DCB      0x00,0xbe,0x41,0x00
0003c4  bd4200bc          DCB      0xbd,0x42,0x00,0xbc
0003c8  4300bb44          DCB      0x43,0x00,0xbb,0x44
0003cc  00ba4500          DCB      0x00,0xba,0x45,0x00
0003d0  b94600b8          DCB      0xb9,0x46,0x00,0xb8
0003d4  4700b748          DCB      0x47,0x00,0xb7,0x48
0003d8  00b64900          DCB      0x00,0xb6,0x49,0x00
0003dc  b54a00b4          DCB      0xb5,0x4a,0x00,0xb4
0003e0  4b00b34c          DCB      0x4b,0x00,0xb3,0x4c
0003e4  00b24d00          DCB      0x00,0xb2,0x4d,0x00
0003e8  b14e00b0          DCB      0xb1,0x4e,0x00,0xb0
0003ec  4f00af50          DCB      0x4f,0x00,0xaf,0x50
0003f0  00ae5100          DCB      0x00,0xae,0x51,0x00
0003f4  ad5200ac          DCB      0xad,0x52,0x00,0xac
0003f8  5300ab54          DCB      0x53,0x00,0xab,0x54
0003fc  00aa5500          DCB      0x00,0xaa,0x55,0x00
000400  a95600a8          DCB      0xa9,0x56,0x00,0xa8
000404  5700a758          DCB      0x57,0x00,0xa7,0x58
000408  00a65900          DCB      0x00,0xa6,0x59,0x00
00040c  a55a00a4          DCB      0xa5,0x5a,0x00,0xa4
000410  5b00a35c          DCB      0x5b,0x00,0xa3,0x5c
000414  00a25d00          DCB      0x00,0xa2,0x5d,0x00
000418  a15e00a0          DCB      0xa1,0x5e,0x00,0xa0
00041c  5f009f60          DCB      0x5f,0x00,0x9f,0x60
000420  009e6100          DCB      0x00,0x9e,0x61,0x00
000424  9d62009c          DCB      0x9d,0x62,0x00,0x9c
000428  63009b64          DCB      0x63,0x00,0x9b,0x64
00042c  009a6500          DCB      0x00,0x9a,0x65,0x00
000430  99660098          DCB      0x99,0x66,0x00,0x98
000434  67009768          DCB      0x67,0x00,0x97,0x68
000438  00966900          DCB      0x00,0x96,0x69,0x00
00043c  956a0094          DCB      0x95,0x6a,0x00,0x94
000440  6b00936c          DCB      0x6b,0x00,0x93,0x6c
000444  00926d00          DCB      0x00,0x92,0x6d,0x00
000448  916e0090          DCB      0x91,0x6e,0x00,0x90
00044c  6f008f70          DCB      0x6f,0x00,0x8f,0x70
000450  008e7100          DCB      0x00,0x8e,0x71,0x00
000454  8d72008c          DCB      0x8d,0x72,0x00,0x8c
000458  73008b74          DCB      0x73,0x00,0x8b,0x74
00045c  008a7500          DCB      0x00,0x8a,0x75,0x00
000460  89760088          DCB      0x89,0x76,0x00,0x88
000464  77008778          DCB      0x77,0x00,0x87,0x78
000468  00867900          DCB      0x00,0x86,0x79,0x00
00046c  857a0084          DCB      0x85,0x7a,0x00,0x84
000470  7b00837c          DCB      0x7b,0x00,0x83,0x7c
000474  00827d00          DCB      0x00,0x82,0x7d,0x00
000478  817e0080          DCB      0x81,0x7e,0x00,0x80
00047c  7f007f80          DCB      0x7f,0x00,0x7f,0x80
000480  007e8100          DCB      0x00,0x7e,0x81,0x00
000484  7d82007c          DCB      0x7d,0x82,0x00,0x7c
000488  83007b84          DCB      0x83,0x00,0x7b,0x84
00048c  007a8500          DCB      0x00,0x7a,0x85,0x00
000490  79860078          DCB      0x79,0x86,0x00,0x78
000494  87007788          DCB      0x87,0x00,0x77,0x88
000498  00768900          DCB      0x00,0x76,0x89,0x00
00049c  758a0074          DCB      0x75,0x8a,0x00,0x74
0004a0  8b00738c          DCB      0x8b,0x00,0x73,0x8c
0004a4  00728d00          DCB      0x00,0x72,0x8d,0x00
0004a8  718e0070          DCB      0x71,0x8e,0x00,0x70
0004ac  8f006f90          DCB      0x8f,0x00,0x6f,0x90
0004b0  006e9100          DCB      0x00,0x6e,0x91,0x00
0004b4  6d92006c          DCB      0x6d,0x92,0x00,0x6c
0004b8  93006b94          DCB      0x93,0x00,0x6b,0x94
0004bc  006a9500          DCB      0x00,0x6a,0x95,0x00
0004c0  69960068          DCB      0x69,0x96,0x00,0x68
0004c4  97006798          DCB      0x97,0x00,0x67,0x98
0004c8  00669900          DCB      0x00,0x66,0x99,0x00
0004cc  659a0064          DCB      0x65,0x9a,0x00,0x64
0004d0  9b00639c          DCB      0x9b,0x00,0x63,0x9c
0004d4  00629d00          DCB      0x00,0x62,0x9d,0x00
0004d8  619e0060          DCB      0x61,0x9e,0x00,0x60
0004dc  9f005fa0          DCB      0x9f,0x00,0x5f,0xa0
0004e0  005ea100          DCB      0x00,0x5e,0xa1,0x00
0004e4  5da2005c          DCB      0x5d,0xa2,0x00,0x5c
0004e8  a3005ba4          DCB      0xa3,0x00,0x5b,0xa4
0004ec  005aa500          DCB      0x00,0x5a,0xa5,0x00
0004f0  59a60058          DCB      0x59,0xa6,0x00,0x58
0004f4  a70057a8          DCB      0xa7,0x00,0x57,0xa8
0004f8  0056a900          DCB      0x00,0x56,0xa9,0x00
0004fc  55aa0054          DCB      0x55,0xaa,0x00,0x54
000500  ab0053ac          DCB      0xab,0x00,0x53,0xac
000504  0052ad00          DCB      0x00,0x52,0xad,0x00
000508  51ae0050          DCB      0x51,0xae,0x00,0x50
00050c  af004fb0          DCB      0xaf,0x00,0x4f,0xb0
000510  004eb100          DCB      0x00,0x4e,0xb1,0x00
000514  4db2004c          DCB      0x4d,0xb2,0x00,0x4c
000518  b3004bb4          DCB      0xb3,0x00,0x4b,0xb4
00051c  004ab500          DCB      0x00,0x4a,0xb5,0x00
000520  49b60048          DCB      0x49,0xb6,0x00,0x48
000524  b70047b8          DCB      0xb7,0x00,0x47,0xb8
000528  0046b900          DCB      0x00,0x46,0xb9,0x00
00052c  45ba0044          DCB      0x45,0xba,0x00,0x44
000530  bb0043bc          DCB      0xbb,0x00,0x43,0xbc
000534  0042bd00          DCB      0x00,0x42,0xbd,0x00
000538  41be0040          DCB      0x41,0xbe,0x00,0x40
00053c  bf003fc0          DCB      0xbf,0x00,0x3f,0xc0
000540  003ec100          DCB      0x00,0x3e,0xc1,0x00
000544  3dc2003c          DCB      0x3d,0xc2,0x00,0x3c
000548  c3003bc4          DCB      0xc3,0x00,0x3b,0xc4
00054c  003ac500          DCB      0x00,0x3a,0xc5,0x00
000550  39c60038          DCB      0x39,0xc6,0x00,0x38
000554  c70037c8          DCB      0xc7,0x00,0x37,0xc8
000558  0036c900          DCB      0x00,0x36,0xc9,0x00
00055c  35ca0034          DCB      0x35,0xca,0x00,0x34
000560  cb0033cc          DCB      0xcb,0x00,0x33,0xcc
000564  0032cd00          DCB      0x00,0x32,0xcd,0x00
000568  31ce0030          DCB      0x31,0xce,0x00,0x30
00056c  cf002fd0          DCB      0xcf,0x00,0x2f,0xd0
000570  002ed100          DCB      0x00,0x2e,0xd1,0x00
000574  2dd2002c          DCB      0x2d,0xd2,0x00,0x2c
000578  d3002bd4          DCB      0xd3,0x00,0x2b,0xd4
00057c  002ad500          DCB      0x00,0x2a,0xd5,0x00
000580  29d60028          DCB      0x29,0xd6,0x00,0x28
000584  d70027d8          DCB      0xd7,0x00,0x27,0xd8
000588  0026d900          DCB      0x00,0x26,0xd9,0x00
00058c  25da0024          DCB      0x25,0xda,0x00,0x24
000590  db0023dc          DCB      0xdb,0x00,0x23,0xdc
000594  0022dd00          DCB      0x00,0x22,0xdd,0x00
000598  21de0020          DCB      0x21,0xde,0x00,0x20
00059c  df001fe0          DCB      0xdf,0x00,0x1f,0xe0
0005a0  001ee100          DCB      0x00,0x1e,0xe1,0x00
0005a4  1de2001c          DCB      0x1d,0xe2,0x00,0x1c
0005a8  e3001be4          DCB      0xe3,0x00,0x1b,0xe4
0005ac  001ae500          DCB      0x00,0x1a,0xe5,0x00
0005b0  19e60018          DCB      0x19,0xe6,0x00,0x18
0005b4  e70017e8          DCB      0xe7,0x00,0x17,0xe8
0005b8  0016e900          DCB      0x00,0x16,0xe9,0x00
0005bc  15ea0014          DCB      0x15,0xea,0x00,0x14
0005c0  eb0013ec          DCB      0xeb,0x00,0x13,0xec
0005c4  0012ed00          DCB      0x00,0x12,0xed,0x00
0005c8  11ee0010          DCB      0x11,0xee,0x00,0x10
0005cc  ef000ff0          DCB      0xef,0x00,0x0f,0xf0
0005d0  000ef100          DCB      0x00,0x0e,0xf1,0x00
0005d4  0df2000c          DCB      0x0d,0xf2,0x00,0x0c
0005d8  f3000bf4          DCB      0xf3,0x00,0x0b,0xf4
0005dc  000af500          DCB      0x00,0x0a,0xf5,0x00
0005e0  09f60008          DCB      0x09,0xf6,0x00,0x08
0005e4  f70007f8          DCB      0xf7,0x00,0x07,0xf8
0005e8  0006f900          DCB      0x00,0x06,0xf9,0x00
0005ec  05fa0004          DCB      0x05,0xfa,0x00,0x04
0005f0  fb0003fc          DCB      0xfb,0x00,0x03,0xfc
0005f4  0002fd00          DCB      0x00,0x02,0xfd,0x00
0005f8  01fe0000          DCB      0x01,0xfe,0x00,0x00
0005fc  ff0100fe          DCB      0xff,0x01,0x00,0xfe
000600  0200fd03          DCB      0x02,0x00,0xfd,0x03
000604  00fc0400          DCB      0x00,0xfc,0x04,0x00
000608  fb0500fa          DCB      0xfb,0x05,0x00,0xfa
00060c  0600f907          DCB      0x06,0x00,0xf9,0x07
000610  00f80800          DCB      0x00,0xf8,0x08,0x00
000614  f70900f6          DCB      0xf7,0x09,0x00,0xf6
000618  0a00f50b          DCB      0x0a,0x00,0xf5,0x0b
00061c  00f40c00          DCB      0x00,0xf4,0x0c,0x00
000620  f30d00f2          DCB      0xf3,0x0d,0x00,0xf2
000624  0e00f10f          DCB      0x0e,0x00,0xf1,0x0f
000628  00f01000          DCB      0x00,0xf0,0x10,0x00
00062c  ef1100ee          DCB      0xef,0x11,0x00,0xee
000630  1200ed13          DCB      0x12,0x00,0xed,0x13
000634  00ec1400          DCB      0x00,0xec,0x14,0x00
000638  eb1500ea          DCB      0xeb,0x15,0x00,0xea
00063c  1600e917          DCB      0x16,0x00,0xe9,0x17
000640  00e81800          DCB      0x00,0xe8,0x18,0x00
000644  e71900e6          DCB      0xe7,0x19,0x00,0xe6
000648  1a00e51b          DCB      0x1a,0x00,0xe5,0x1b
00064c  00e41c00          DCB      0x00,0xe4,0x1c,0x00
000650  e31d00e2          DCB      0xe3,0x1d,0x00,0xe2
000654  1e00e11f          DCB      0x1e,0x00,0xe1,0x1f
000658  00e02000          DCB      0x00,0xe0,0x20,0x00
00065c  df2100de          DCB      0xdf,0x21,0x00,0xde
000660  2200dd23          DCB      0x22,0x00,0xdd,0x23
000664  00dc2400          DCB      0x00,0xdc,0x24,0x00
000668  db2500da          DCB      0xdb,0x25,0x00,0xda
00066c  2600d927          DCB      0x26,0x00,0xd9,0x27
000670  00d82800          DCB      0x00,0xd8,0x28,0x00
000674  d72900d6          DCB      0xd7,0x29,0x00,0xd6
000678  2a00d52b          DCB      0x2a,0x00,0xd5,0x2b
00067c  00d42c00          DCB      0x00,0xd4,0x2c,0x00
000680  d32d00d2          DCB      0xd3,0x2d,0x00,0xd2
000684  2e00d12f          DCB      0x2e,0x00,0xd1,0x2f
000688  00d03000          DCB      0x00,0xd0,0x30,0x00
00068c  cf3100ce          DCB      0xcf,0x31,0x00,0xce
000690  3200cd33          DCB      0x32,0x00,0xcd,0x33
000694  00cc3400          DCB      0x00,0xcc,0x34,0x00
000698  cb3500ca          DCB      0xcb,0x35,0x00,0xca
00069c  3600c937          DCB      0x36,0x00,0xc9,0x37
0006a0  00c83800          DCB      0x00,0xc8,0x38,0x00
0006a4  c73900c6          DCB      0xc7,0x39,0x00,0xc6
0006a8  3a00c53b          DCB      0x3a,0x00,0xc5,0x3b
0006ac  00c43c00          DCB      0x00,0xc4,0x3c,0x00
0006b0  c33d00c2          DCB      0xc3,0x3d,0x00,0xc2
0006b4  3e00c13f          DCB      0x3e,0x00,0xc1,0x3f
0006b8  00c04000          DCB      0x00,0xc0,0x40,0x00
0006bc  bf4100be          DCB      0xbf,0x41,0x00,0xbe
0006c0  4200bd43          DCB      0x42,0x00,0xbd,0x43
0006c4  00bc4400          DCB      0x00,0xbc,0x44,0x00
0006c8  bb4500ba          DCB      0xbb,0x45,0x00,0xba
0006cc  4600b947          DCB      0x46,0x00,0xb9,0x47
0006d0  00b84800          DCB      0x00,0xb8,0x48,0x00
0006d4  b74900b6          DCB      0xb7,0x49,0x00,0xb6
0006d8  4a00b54b          DCB      0x4a,0x00,0xb5,0x4b
0006dc  00b44c00          DCB      0x00,0xb4,0x4c,0x00
0006e0  b34d00b2          DCB      0xb3,0x4d,0x00,0xb2
0006e4  4e00b14f          DCB      0x4e,0x00,0xb1,0x4f
0006e8  00b05000          DCB      0x00,0xb0,0x50,0x00
0006ec  af5100ae          DCB      0xaf,0x51,0x00,0xae
0006f0  5200ad53          DCB      0x52,0x00,0xad,0x53
0006f4  00ac5400          DCB      0x00,0xac,0x54,0x00
0006f8  ab5500aa          DCB      0xab,0x55,0x00,0xaa
0006fc  5600a957          DCB      0x56,0x00,0xa9,0x57
000700  00a85800          DCB      0x00,0xa8,0x58,0x00
000704  a75900a6          DCB      0xa7,0x59,0x00,0xa6
000708  5a00a55b          DCB      0x5a,0x00,0xa5,0x5b
00070c  00a45c00          DCB      0x00,0xa4,0x5c,0x00
000710  a35d00a2          DCB      0xa3,0x5d,0x00,0xa2
000714  5e00a15f          DCB      0x5e,0x00,0xa1,0x5f
000718  00a06000          DCB      0x00,0xa0,0x60,0x00
00071c  9f61009e          DCB      0x9f,0x61,0x00,0x9e
000720  62009d63          DCB      0x62,0x00,0x9d,0x63
000724  009c6400          DCB      0x00,0x9c,0x64,0x00
000728  9b65009a          DCB      0x9b,0x65,0x00,0x9a
00072c  66009967          DCB      0x66,0x00,0x99,0x67
000730  00986800          DCB      0x00,0x98,0x68,0x00
000734  97690096          DCB      0x97,0x69,0x00,0x96
000738  6a00956b          DCB      0x6a,0x00,0x95,0x6b
00073c  00946c00          DCB      0x00,0x94,0x6c,0x00
000740  936d0092          DCB      0x93,0x6d,0x00,0x92
000744  6e00916f          DCB      0x6e,0x00,0x91,0x6f
000748  00907000          DCB      0x00,0x90,0x70,0x00
00074c  8f71008e          DCB      0x8f,0x71,0x00,0x8e
000750  72008d73          DCB      0x72,0x00,0x8d,0x73
000754  008c7400          DCB      0x00,0x8c,0x74,0x00
000758  8b75008a          DCB      0x8b,0x75,0x00,0x8a
00075c  76008977          DCB      0x76,0x00,0x89,0x77
000760  00887800          DCB      0x00,0x88,0x78,0x00
000764  87790086          DCB      0x87,0x79,0x00,0x86
000768  7a00857b          DCB      0x7a,0x00,0x85,0x7b
00076c  00847c00          DCB      0x00,0x84,0x7c,0x00
000770  837d0082          DCB      0x83,0x7d,0x00,0x82
000774  7e00817f          DCB      0x7e,0x00,0x81,0x7f
000778  00808000          DCB      0x00,0x80,0x80,0x00
00077c  7f81007e          DCB      0x7f,0x81,0x00,0x7e
000780  82007d83          DCB      0x82,0x00,0x7d,0x83
000784  007c8400          DCB      0x00,0x7c,0x84,0x00
000788  7b85007a          DCB      0x7b,0x85,0x00,0x7a
00078c  86007987          DCB      0x86,0x00,0x79,0x87
000790  00788800          DCB      0x00,0x78,0x88,0x00
000794  77890076          DCB      0x77,0x89,0x00,0x76
000798  8a00758b          DCB      0x8a,0x00,0x75,0x8b
00079c  00748c00          DCB      0x00,0x74,0x8c,0x00
0007a0  738d0072          DCB      0x73,0x8d,0x00,0x72
0007a4  8e00718f          DCB      0x8e,0x00,0x71,0x8f
0007a8  00709000          DCB      0x00,0x70,0x90,0x00
0007ac  6f91006e          DCB      0x6f,0x91,0x00,0x6e
0007b0  92006d93          DCB      0x92,0x00,0x6d,0x93
0007b4  006c9400          DCB      0x00,0x6c,0x94,0x00
0007b8  6b95006a          DCB      0x6b,0x95,0x00,0x6a
0007bc  96006997          DCB      0x96,0x00,0x69,0x97
0007c0  00689800          DCB      0x00,0x68,0x98,0x00
0007c4  67990066          DCB      0x67,0x99,0x00,0x66
0007c8  9a00659b          DCB      0x9a,0x00,0x65,0x9b
0007cc  00649c00          DCB      0x00,0x64,0x9c,0x00
0007d0  639d0062          DCB      0x63,0x9d,0x00,0x62
0007d4  9e00619f          DCB      0x9e,0x00,0x61,0x9f
0007d8  0060a000          DCB      0x00,0x60,0xa0,0x00
0007dc  5fa1005e          DCB      0x5f,0xa1,0x00,0x5e
0007e0  a2005da3          DCB      0xa2,0x00,0x5d,0xa3
0007e4  005ca400          DCB      0x00,0x5c,0xa4,0x00
0007e8  5ba5005a          DCB      0x5b,0xa5,0x00,0x5a
0007ec  a60059a7          DCB      0xa6,0x00,0x59,0xa7
0007f0  0058a800          DCB      0x00,0x58,0xa8,0x00
0007f4  57a90056          DCB      0x57,0xa9,0x00,0x56
0007f8  aa0055ab          DCB      0xaa,0x00,0x55,0xab
0007fc  0054ac00          DCB      0x00,0x54,0xac,0x00
000800  53ad0052          DCB      0x53,0xad,0x00,0x52
000804  ae0051af          DCB      0xae,0x00,0x51,0xaf
000808  0050b000          DCB      0x00,0x50,0xb0,0x00
00080c  4fb1004e          DCB      0x4f,0xb1,0x00,0x4e
000810  b2004db3          DCB      0xb2,0x00,0x4d,0xb3
000814  004cb400          DCB      0x00,0x4c,0xb4,0x00
000818  4bb5004a          DCB      0x4b,0xb5,0x00,0x4a
00081c  b60049b7          DCB      0xb6,0x00,0x49,0xb7
000820  0048b800          DCB      0x00,0x48,0xb8,0x00
000824  47b90046          DCB      0x47,0xb9,0x00,0x46
000828  ba0045bb          DCB      0xba,0x00,0x45,0xbb
00082c  0044bc00          DCB      0x00,0x44,0xbc,0x00
000830  43bd0042          DCB      0x43,0xbd,0x00,0x42
000834  be0041bf          DCB      0xbe,0x00,0x41,0xbf
000838  0040c000          DCB      0x00,0x40,0xc0,0x00
00083c  3fc1003e          DCB      0x3f,0xc1,0x00,0x3e
000840  c2003dc3          DCB      0xc2,0x00,0x3d,0xc3
000844  003cc400          DCB      0x00,0x3c,0xc4,0x00
000848  3bc5003a          DCB      0x3b,0xc5,0x00,0x3a
00084c  c60039c7          DCB      0xc6,0x00,0x39,0xc7
000850  0038c800          DCB      0x00,0x38,0xc8,0x00
000854  37c90036          DCB      0x37,0xc9,0x00,0x36
000858  ca0035cb          DCB      0xca,0x00,0x35,0xcb
00085c  0034cc00          DCB      0x00,0x34,0xcc,0x00
000860  33cd0032          DCB      0x33,0xcd,0x00,0x32
000864  ce0031cf          DCB      0xce,0x00,0x31,0xcf
000868  0030d000          DCB      0x00,0x30,0xd0,0x00
00086c  2fd1002e          DCB      0x2f,0xd1,0x00,0x2e
000870  d2002dd3          DCB      0xd2,0x00,0x2d,0xd3
000874  002cd400          DCB      0x00,0x2c,0xd4,0x00
000878  2bd5002a          DCB      0x2b,0xd5,0x00,0x2a
00087c  d60029d7          DCB      0xd6,0x00,0x29,0xd7
000880  0028d800          DCB      0x00,0x28,0xd8,0x00
000884  27d90026          DCB      0x27,0xd9,0x00,0x26
000888  da0025db          DCB      0xda,0x00,0x25,0xdb
00088c  0024dc00          DCB      0x00,0x24,0xdc,0x00
000890  23dd0022          DCB      0x23,0xdd,0x00,0x22
000894  de0021df          DCB      0xde,0x00,0x21,0xdf
000898  0020e000          DCB      0x00,0x20,0xe0,0x00
00089c  1fe1001e          DCB      0x1f,0xe1,0x00,0x1e
0008a0  e2001de3          DCB      0xe2,0x00,0x1d,0xe3
0008a4  001ce400          DCB      0x00,0x1c,0xe4,0x00
0008a8  1be5001a          DCB      0x1b,0xe5,0x00,0x1a
0008ac  e60019e7          DCB      0xe6,0x00,0x19,0xe7
0008b0  0018e800          DCB      0x00,0x18,0xe8,0x00
0008b4  17e90016          DCB      0x17,0xe9,0x00,0x16
0008b8  ea0015eb          DCB      0xea,0x00,0x15,0xeb
0008bc  0014ec00          DCB      0x00,0x14,0xec,0x00
0008c0  13ed0012          DCB      0x13,0xed,0x00,0x12
0008c4  ee0011ef          DCB      0xee,0x00,0x11,0xef
0008c8  0010f000          DCB      0x00,0x10,0xf0,0x00
0008cc  0ff1000e          DCB      0x0f,0xf1,0x00,0x0e
0008d0  f2000df3          DCB      0xf2,0x00,0x0d,0xf3
0008d4  000cf400          DCB      0x00,0x0c,0xf4,0x00
0008d8  0bf5000a          DCB      0x0b,0xf5,0x00,0x0a
0008dc  f60009f7          DCB      0xf6,0x00,0x09,0xf7
0008e0  0008f800          DCB      0x00,0x08,0xf8,0x00
0008e4  07f90006          DCB      0x07,0xf9,0x00,0x06
0008e8  fa0005fb          DCB      0xfa,0x00,0x05,0xfb
0008ec  0004fc00          DCB      0x00,0x04,0xfc,0x00
0008f0  03fd0002          DCB      0x03,0xfd,0x00,0x02
0008f4  fe0001ff          DCB      0xfe,0x00,0x01,0xff
0008f8  0000              DCB      0x00,0x00

                          AREA ||.data||, DATA, ALIGN=1

                  DemoState
000000  31                DCB      0x31
                  flag
000001  01                DCB      0x01
                  ||Red||
000002  ff                DCB      0xff
                  Green
000003  00                DCB      0x00
                  Blue
000004  00                DCB      0x00
                  State
000005  00                DCB      0x00
                  intensity
000006  00                DCB      0x00
                  sign
000007  00                DCB      0x00
                  |symbol_number.123|
000008  0100              DCB      0x01,0x00
                  Coloridx
00000a  0000              DCW      0x0000
                  ||CNT||
00000c  0000              DCW      0x0000

                          AREA ||i.__ARM_common_switch8||, COMGROUP=__ARM_common_switch8, CODE, READONLY, ALIGN=1

                  __ARM_common_switch8 PROC
000000  b430              PUSH     {r4,r5}
000002  4674              MOV      r4,lr
000004  1e64              SUBS     r4,r4,#1
000006  7825              LDRB     r5,[r4,#0]
000008  1c64              ADDS     r4,r4,#1
00000a  42ab              CMP      r3,r5
00000c  d200              BCS      |L244.16|
00000e  461d              MOV      r5,r3
                  |L244.16|
000010  5d63              LDRB     r3,[r4,r5]
000012  005b              LSLS     r3,r3,#1
000014  18e3              ADDS     r3,r4,r3
000016  bc30              POP      {r4,r5}
000018  4718              BX       r3
                          ENDP


;*** Start embedded assembler ***

#line 1 "..\\main.c"
	AREA ||.rev16_text||, CODE
	THUMB
	EXPORT |__asm___6_main_c_bd2cd617____REV16|
#line 388 "..\\..\\..\\Library\\CMSIS\\Include\\cmsis_armcc.h"
|__asm___6_main_c_bd2cd617____REV16| PROC
#line 389

 rev16 r0, r0
 bx lr
	ENDP
	AREA ||.revsh_text||, CODE
	THUMB
	EXPORT |__asm___6_main_c_bd2cd617____REVSH|
#line 402
|__asm___6_main_c_bd2cd617____REVSH| PROC
#line 403

 revsh r0, r0
 bx lr
	ENDP

;*** End   embedded assembler ***

                  __ARM_use_no_argv EQU 0
